mads 2.1.7
Source: ttl6502.asm
     1 				; TTL-6502 program
     2
     3 				.ifndef ATARI
     4 				    opt h-
     5 				    opt f+
     6 				    org $0000
     7 0000 00			    dta 0
     8 				.endif
     9
    10 = 0003			Test	= $03
    11 = 0010			TmpZP0	= $10
    12 = 1000			TmpAB0	= $1000
    13
    14 				.ifndef ATARI
    15 0001 00 00 00 00 00 00 +     .align $e000,0
    16 E000			    org $E000
    17 E000			Reset
    18 				.else
    19 				    org $a000
    20
    21 				Reset
    22 				    sei
    23 				    lda #0
    24 				    sta $d40e
    25 				    sta $d20e
    26 				    cli
    27 				    tax
    28 				@:
    29 				    sta 0,x
    30 				    inx
    31 				    bne @-
    32 				    lda #$fe
    33 				    sta $d301
    34 				    mwa #IRQ $fffe
    35 				    mwa #NMI $fffa
    36 				.endif
    37
    38 E000 EA					nop
    39
    40
    41 				;**  Check if JMP works fine
    42 E001 4C EC FF				jmp	L999
    43
    44 				;* Should not be executed at all
    45 E004 EA					nop
    46 E005 38					sec
    47 E006			L000c
    48 E006 B0 FE				bcs	L000c
    49 						
    50 E008 EA					nop
    51 E009			L000
    52 E009 4C 6E F5				jmp	M372
    53 						
    54 E00C EA					nop
    55 E00D			L000a
    56 E00D 18					clc
    57 E00E A9 00				lda	#0
    58 E010 60					rts
    59 						
    60 E011 EA					nop
    61
    62 						
    63 				;**  Test branches with all flags set
    64 E012			L005
    65 E012 A9 01				lda	#1
    66 E014 85 03				sta	Test
    67
    68 E016 A2 FF				ldx	#$FF
    69 E018 9A					txs
    70
    71 E019 A9 FF				lda	#$FF
    72 E01B 48					pha
    73 E01C 28					plp			; set all flags
    74
    75 				;!! Remark: if an error occurs, don't forget that one of the above instructions
    76 				;           could have been the cause instead.
    77 E01D			L001
    78 E01D 90 FE				bcc	L001
    79 E01F			L002
    80 E01F D0 FE				bne	L002
    81 E021			L003
    82 E021 50 FE				bvc	L003
    83 E023			L004
    84 E023 10 FE				bpl	L004
    85
    86 E025 30 03				bmi	L006		; must branch, else error
    87 E027			L004a
    88 E027 4C 27 E0				jmp	L004a		; error, ->
    89 E02A			L006
    90 E02A F0 03				beq	L007		; must branch, else error
    91 E02C			L006a
    92 E02C 4C 2C E0				jmp	L006a		; error, ->
    93 E02F			L007
    94 E02F 70 03				bvs	L008		; must branch, else error
    95 E031			L007a
    96 E031 4C 31 E0				jmp	L007a		; error, ->
    97 E034			L008
    98 E034 B0 03				bcs	L010		; must branch, else error
    99
   100 				; Branch shouldn't have happened,
   101 E036			L008a
   102 E036 4C 36 E0				jmp	L008a
   103
   104 				;**  Test branches with all flags reset
   105 E039			L010
   106 E039 A9 02				lda	#2
   107 E03B 85 03				sta	Test
   108
   109 E03D A9 00				lda	#0
   110 E03F 48					pha
   111 E040 28					plp			; reset all flags
   112 E041			L011
   113 E041 B0 FE				bcs	L011
   114 E043			L012
   115 E043 F0 FE				beq	L012
   116 E045			L013
   117 E045 70 FE				bvs	L013
   118 E047			L014
   119 E047 30 FE				bmi	L014
   120
   121 E049 90 03				bcc	L015		; must branch, else error
   122 E04B			L014a
   123 E04B 4C 4B E0				jmp	L014a		; error, ->
   124 E04E			L015
   125 E04E D0 03				bne	L016		; must branch, else error
   126 E050			L015a
   127 E050 4C 50 E0				jmp	L015a		; error, ->
   128 E053			L016
   129 E053 50 03				bvc	L017		; must branch, else error
   130 E055			L016a
   131 E055 4C 55 E0				jmp	L016a		; error, ->
   132 E058			L017
   133 E058 10 03				bpl	L020		; must branch, else error
   134 E05A			L017a
   135 E05A 4C 5A E0				jmp	L017a		; error, ->
   136
   137
   138 				;**  Test SEC, CLC and CLV
   139 E05D			L020
   140
   141 E05D A9 03				lda	#3
   142 E05F 85 03				sta	Test
   143 E061			L020c
   144 E061 F0 FE				beq	L020c		; must skip, else error
   145
   146 E063 D0 03				bne	L020e
   147 E065			L020d
   148 E065 4C 65 E0				jmp	L020d
   149 E068			L020e
   150 E068 38					sec
   151 E069			L020a
   152 E069 90 FE				bcc	L020a		; error, ->
   153
   154 E06B B0 03				bcs	L021		; must branch, else error
   155 E06D			L020b
   156 E06D 4C 6D E0				jmp	L020b		; error, ->
   157
   158 E070			L021
   159 E070 18					clc
   160 E071			L021a
   161 E071 B0 FE				bcs	L021a		; error, ->
   162
   163 E073 90 03				bcc	L022		; must branch, else error
   164 E075			L021b
   165 E075 4C 75 E0				jmp	L021b		; error, ->
   166
   167 E078			L022
   168 E078 B8					clv
   169 E079			L022a
   170 E079 70 FE				bvs	L022a		; error, ->
   171
   172 E07B 50 03				bvc	L030		; must branch, else error
   173 E07D			L022b
   174 E07D 4C 7D E0				jmp	L022b		; error, ->
   175
   176
   177 				;**  Test LDA/X/Y #n, STA/X/Y $xx/$xxxx
   178 E080			L030
   179 E080 A9 04				lda	#4
   180 E082 85 03				sta	Test
   181
   182 E084 A9 00				lda	#0
   183 E086			L031
   184 E086 D0 FE				bne	L031		; error, ->
   185 E088			L032
   186 E088 30 FE				bmi	L032		; error, ->
   187
   188 E08A 85 10				sta	TmpZP0
   189 E08C 8D 00 10				sta	TmpAB0
   190
   191 E08F A9 80				lda	#$80
   192 E091			L033
   193 E091 F0 FE				beq	L033		; error, ->
   194 E093			L034
   195 E093 10 FE				bpl	L034		; error, ->
   196
   197 E095 85 11				sta	TmpZP0+1
   198 E097 8D 01 10				sta	TmpAB0+1
   199
   200 E09A A2 00				ldx	#0
   201 E09C			L035
   202 E09C D0 FE				bne	L035		; error, ->
   203 E09E			L036
   204 E09E 30 FE				bmi	L036		; error, ->
   205
   206 E0A0 86 12				stx	TmpZP0+2
   207 E0A2 8E 02 10				stx	TmpAB0+2
   208
   209 E0A5 A2 80				ldx	#$80
   210 E0A7			L037
   211 E0A7 F0 FE				beq	L037		; error, ->
   212 E0A9			L038
   213 E0A9 10 FE				bpl	L038		; error, ->
   214
   215 E0AB 86 13				stx	TmpZP0+3
   216 E0AD 8E 03 10				stx	TmpAB0+3
   217
   218 E0B0 A0 00				ldy	#0
   219 E0B2			L039a
   220 E0B2 D0 FE				bne	L039a		; error, ->
   221 E0B4			L039b
   222 E0B4 30 FE				bmi	L039b		; error, ->
   223
   224 E0B6 84 14				sty	TmpZP0+4
   225 E0B8 8C 04 10				sty	TmpAB0+4
   226
   227 E0BB A0 80				ldy	#$80
   228 E0BD			L039c
   229 E0BD F0 FE				beq	L039c		; error, ->
   230 E0BF			L039d
   231 E0BF 10 FE				bpl	L039d		; error, ->
   232
   233 E0C1 84 15				sty	TmpZP0+5
   234 E0C3 8C 05 10				sty	TmpAB0+5
   235
   236
   237 				;**  Test LDA/X/Y $xx
   238 E0C6 A9 05				lda	#5
   239 E0C8 85 03				sta	Test
   240
   241 E0CA A5 10				lda	TmpZP0
   242 E0CC			L039e
   243 E0CC D0 FE				bne	L039e		; error, ->
   244 E0CE			L039f
   245 E0CE 30 FE				bmi	L039f		; error, ->
   246
   247
   248 E0D0 A5 11				lda	TmpZP0+1
   249 E0D2			L039g
   250 E0D2 F0 FE				beq	L039g		; error, ->
   251 E0D4			L039h
   252 E0D4 10 FE				bpl	L039h		; error, ->
   253
   254
   255 E0D6 A6 10				ldx	TmpZP0
   256 E0D8			L039i
   257 E0D8 D0 FE				bne	L039i		; error, ->
   258 E0DA			L039j
   259 E0DA 30 FE				bmi	L039j		; error, ->
   260
   261
   262 E0DC A6 11				ldx	TmpZP0+1
   263 E0DE			L039k
   264 E0DE F0 FE				beq	L039k		; error, ->
   265 E0E0			L039l
   266 E0E0 10 FE				bpl	L039l		; error, ->
   267
   268
   269 E0E2 A4 10				ldy	TmpZP0
   270 E0E4			L039m
   271 E0E4 D0 FE				bne	L039m		; error, ->
   272 E0E6			L039n
   273 E0E6 30 FE				bmi	L039n		; error, ->
   274
   275
   276 E0E8 A4 11				ldy	TmpZP0+1
   277 E0EA			L039o
   278 E0EA F0 FE				beq	L039o		; error, ->
   279 E0EC			L039p
   280 E0EC 10 FE				bpl	L039p		; error, ->
   281
   282
   283 				;**  Test branch around page border
   284 E0EE 18					clc
   285 E0EF 90 14				bcc	L40m
   286 E0F1			L40a
   287 E0F1 4C F1 E0				jmp	L40a
   288
   289 E0F4			L40b
   290 E0F4 38					sec
   291 E0F5 B0 10				bcs	L40z
   292 						
   293 				;.fb $EA, 14
   294 				    .rept 14
   295 				        DTA $EA
   296 				    .endr
Source: REPT
   295 E0F7 EA			        DTA $EA
   295 E0F8 EA			        DTA $EA
   295 E0F9 EA			        DTA $EA
   295 E0FA EA			        DTA $EA
   295 E0FB EA			        DTA $EA
   295 E0FC EA			        DTA $EA
   295 E0FD EA			        DTA $EA
   295 E0FE EA			        DTA $EA
   295 E0FF EA			        DTA $EA
   295 E100 EA			        DTA $EA
   295 E101 EA			        DTA $EA
   295 E102 EA			        DTA $EA
   295 E103 EA			        DTA $EA
   295 E104 EA			        DTA $EA
Source: ttl6502.asm
   297
   298 E105 90 ED		L40m		bcc	L40b
   299 										
   300
   301 				;**  Test LDA/X/Y $xxxx
   302 E107			L40z
   303 E107 A9 06				lda	#6
   304 E109 85 03				sta	Test
   305
   306 E10B AD 00 10				lda	TmpAB0
   307 E10E			L041
   308 E10E D0 FE				bne	L041		; error, ->
   309 E110			L042
   310 E110 30 FE				bmi	L042		; error, ->
   311
   312
   313 E112 AD 01 10				lda	TmpAB0+1
   314 E115			L043
   315 E115 F0 FE				beq	L043		; error, ->
   316 E117			L044
   317 E117 10 FE				bpl	L044		; error, ->
   318
   319
   320 E119 AE 00 10				ldx	TmpAB0
   321 E11C			L044a
   322 E11C D0 FE				bne	L044a		; error, ->
   323 E11E			L044b
   324 E11E 30 FE				bmi	L044b		; error, ->
   325
   326
   327 E120 AE 01 10				ldx	TmpAB0+1
   328 E123			L044c
   329 E123 F0 FE				beq	L044c		; error, ->
   330 E125			L044d
   331 E125 10 FE				bpl	L044d		; error, ->
   332
   333 E127 AC 00 10				ldy	TmpAB0
   334 E12A			L044e
   335 E12A D0 FE				bne	L044e		; error, ->
   336 E12C			L044f
   337 E12C 30 FE				bmi	L044f		; error, ->
   338
   339 E12E AC 01 10				ldy	TmpAB0+1
   340 E131			L044g
   341 E131 F0 FE				beq	L044g		; error, ->
   342 E133			L044h
   343 E133 10 FE				bpl	L044h		; error, ->
   344
   345
   346 				;**  Test CMP/CPX/CPY
   347 				;* register = value
   348 E135 A2 00				ldx	#0
   349 E137 A0 00				ldy	#0
   350 E139 A9 07				lda	#7
   351 E13B 85 03				sta	Test
   352 E13D 85 10				sta	TmpZP0
   353 E13F 8D 00 10				sta	TmpAB0
   354
   355 E142 C9 07				cmp	#7
   356 E144			L051
   357 E144 D0 FE				bne	L051		; error, ->
   358 E146			L052
   359 E146 90 FE				bcc	L052		; error, ->
   360 E148			L053
   361 E148 30 FE				bmi	L053		; error, ->
   362
   363
   364 E14A C5 10				cmp	TmpZP0
   365 E14C			L051a
   366 E14C D0 FE				bne	L051a		; error, ->
   367 E14E			L052a
   368 E14E 90 FE				bcc	L052a		; error, ->
   369 E150			L053a
   370 E150 30 FE				bmi	L053a		; error, ->
   371
   372
   373 E152 CD 00 10				cmp	TmpAB0
   374 E155			L051b
   375 E155 D0 FE				bne	L051b		; error, ->
   376 E157			L052b
   377 E157 90 FE				bcc	L052b		; error, ->
   378 E159			L053b
   379 E159 30 FE				bmi	L053b		; error, ->
   380
   381
   382 E15B A2 07				ldx	#7
   383 E15D E0 07				cpx	#7
   384 E15F			L051c
   385 E15F D0 FE				bne	L051c		; error, ->
   386 E161			L052c
   387 E161 90 FE				bcc	L052c		; error, ->
   388 E163			L053c
   389 E163 30 FE				bmi	L053c		; error, ->
   390
   391
   392 E165 E4 10				cpx	TmpZP0
   393 E167			L051d
   394 E167 D0 FE				bne	L051d		; error, ->
   395 E169			L052d
   396 E169 90 FE				bcc	L052d		; error, ->
   397 E16B			L053d
   398 E16B 30 FE				bmi	L053d		; error, ->
   399
   400
   401 E16D EC 00 10				cpx	TmpAB0
   402 E170			L051e
   403 E170 D0 FE				bne	L051e		; error, ->
   404 E172			L052e
   405 E172 90 FE				bcc	L052e		; error, ->
   406 E174			L053e
   407 E174 30 FE				bmi	L053e		; error, ->
   408
   409
   410 E176 A0 07				ldy	#7
   411 E178 C0 07				cpy	#7
   412 E17A			L051f
   413 E17A D0 FE				bne	L051f		; error, ->
   414 E17C			L052f
   415 E17C 90 FE				bcc	L052f		; error, ->
   416 E17E			L053f
   417 E17E 30 FE				bmi	L053f		; error, ->
   418
   419
   420 E180 C4 10				cpy	TmpZP0
   421 E182			L051g
   422 E182 D0 FE				bne	L051g		; error, ->
   423 E184			L052g
   424 E184 90 FE				bcc	L052g		; error, ->
   425 E186			L053g
   426 E186 30 FE				bmi	L053g		; error, ->
   427
   428
   429 E188 CC 00 10				cpy	TmpAB0
   430 E18B			L051h
   431 E18B D0 FE				bne	L051h		; error, ->
   432 E18D			L052h
   433 E18D 90 FE				bcc	L052h		; error, ->
   434 E18F			L053h
   435 E18F 30 FE				bmi	L053h		; error, ->
   436
   437 				;* register > memory
   438 E191 A9 08				lda	#8
   439 E193 85 03				sta	Test
   440
   441
   442 E195 C9 07				cmp	#7
   443 E197			L061
   444 E197 F0 FE				beq	L061		; error, ->
   445 E199			L062
   446 E199 90 FE				bcc	L062		; error, ->
   447 E19B			L063
   448 E19B 30 FE				bmi	L063		; error, ->
   449
   450
   451 E19D C5 10				cmp	TmpZP0
   452 E19F			L061a
   453 E19F F0 FE				beq	L061a		; error, ->
   454 E1A1			L062a
   455 E1A1 90 FE				bcc	L062a		; error, ->
   456 E1A3			L063a
   457 E1A3 30 FE				bmi	L063a		; error, ->
   458
   459
   460 E1A5 CD 00 10				cmp	TmpAB0
   461 E1A8			L061b
   462 E1A8 F0 FE				beq	L061b		; error, ->
   463 E1AA			L062b
   464 E1AA 90 FE				bcc	L062b		; error, ->
   465 E1AC			L063b
   466 E1AC 30 FE				bmi	L063b		; error, ->
   467
   468
   469 E1AE A2 08				ldx	#8
   470 E1B0 E0 07				cpx	#7
   471 E1B2			L061c
   472 E1B2 F0 FE				beq	L061c		; error, ->
   473 E1B4			L062c
   474 E1B4 90 FE				bcc	L062c		; error, ->
   475 E1B6			L063c
   476 E1B6 30 FE				bmi	L063c		; error, ->
   477
   478
   479 E1B8 E4 10				cpx	TmpZP0
   480 E1BA			L061d
   481 E1BA F0 FE				beq	L061d		; error, ->
   482 E1BC			L062d
   483 E1BC 90 FE				bcc	L062d		; error, ->
   484 E1BE			L063d
   485 E1BE 30 FE				bmi	L063d		; error, ->
   486
   487
   488 E1C0 EC 00 10				cpx	TmpAB0
   489 E1C3			L061e
   490 E1C3 F0 FE				beq	L061e		; error, ->
   491 E1C5			L062e
   492 E1C5 90 FE				bcc	L062e		; error, ->
   493 E1C7			L063e
   494 E1C7 30 FE				bmi	L063e		; error, ->
   495
   496
   497 E1C9 A0 08				ldy	#8
   498 E1CB C0 07				cpy	#7
   499 E1CD			L061f
   500 E1CD F0 FE				beq	L061f		; error, ->
   501 E1CF			L062f
   502 E1CF 90 FE				bcc	L062f		; error, ->
   503 E1D1			L063f
   504 E1D1 30 FE				bmi	L063f		; error, ->
   505
   506
   507 E1D3 C4 10				cpy	TmpZP0
   508 E1D5			L061g
   509 E1D5 F0 FE				beq	L061g		; error, ->
   510 E1D7			L062g
   511 E1D7 90 FE				bcc	L062g		; error, ->
   512 E1D9			L063g
   513 E1D9 30 FE				bmi	L063g		; error, ->
   514
   515
   516 E1DB CC 00 10				cpy	TmpAB0
   517 E1DE			L061h
   518 E1DE F0 FE				beq	L061h		; error, ->
   519 E1E0			L062h
   520 E1E0 90 FE				bcc	L062h		; error, ->
   521 E1E2			L063h
   522 E1E2 30 FE				bmi	L063h		; error, ->
   523
   524
   525 				;* register < memory
   526 E1E4 A9 08				lda	#8
   527 E1E6 85 03				sta	Test
   528
   529 E1E8 A9 05				lda	#5
   530 E1EA C9 07				cmp	#7
   531 E1EC			L071
   532 E1EC F0 FE				beq	L071		; error, ->
   533 E1EE			L072
   534 E1EE B0 FE				bcs	L072		; error, ->
   535 E1F0			L073
   536 E1F0 10 FE				bpl	L073		; error, ->
   537
   538
   539 E1F2 C5 10				cmp	TmpZP0
   540 E1F4			L071a
   541 E1F4 F0 FE				beq	L071a		; error, ->
   542 E1F6			L072a
   543 E1F6 B0 FE				bcs	L072a		; error, ->
   544 E1F8			L073a
   545 E1F8 10 FE				bpl	L073a		; error, ->
   546
   547
   548 E1FA A2 05				ldx	#5
   549 E1FC E0 07				cpx	#7
   550 E1FE			L071b
   551 E1FE F0 FE				beq	L071b		; error, ->
   552 E200			L072b
   553 E200 B0 FE				bcs	L072b		; error, ->
   554 E202			L073b
   555 E202 10 FE				bpl	L073b		; error, ->
   556
   557
   558 E204 E4 10				cpx	TmpZP0
   559 E206			L071c
   560 E206 F0 FE				beq	L071c		; error, ->
   561 E208			L072c
   562 E208 B0 FE				bcs	L072c		; error, ->
   563 E20A			L073c
   564 E20A 10 FE				bpl	L073c		; error, ->
   565
   566
   567 E20C EC 00 10				cpx	TmpAB0
   568 E20F			L071d
   569 E20F F0 FE				beq	L071d		; error, ->
   570 E211			L072d
   571 E211 B0 FE				bcs	L072d		; error, ->
   572 E213			L073d
   573 E213 10 FE				bpl	L073d		; error, ->
   574
   575
   576 E215 A0 05				ldy	#5
   577 E217 C0 07				cpy	#7
   578 E219			L071e
   579 E219 F0 FE				beq	L071e		; error, ->
   580 E21B			L072e
   581 E21B B0 FE				bcs	L072e		; error, ->
   582 E21D			L073e
   583 E21D 10 FE				bpl	L073e		; error, ->
   584
   585
   586 E21F C4 10				cpy	TmpZP0
   587 E221			L071f
   588 E221 F0 FE				beq	L071f		; error, ->
   589 E223			L072f
   590 E223 B0 FE				bcs	L072f		; error, ->
   591 E225			L073f
   592 E225 10 FE				bpl	L073f		; error, ->
   593
   594
   595 E227 CC 00 10				cpy	TmpAB0
   596 E22A			L071g
   597 E22A F0 FE				beq	L071g		; error, ->
   598 E22C			L072g
   599 E22C B0 FE				bcs	L072g		; error, ->
   600 E22E			L073g
   601 E22E 10 FE				bpl	L073g		; error, ->
   602
   603
   604 				;**  TAX, TXA
   605 E230 A9 09				lda	#9
   606 E232 85 03				sta	Test
   607
   608 E234 A2 00				ldx	#0
   609 E236 A9 AA				lda	#$AA
   610 E238 AA					tax
   611 E239			L081
   612 E239 10 FE				bpl	L081		; error, ->
   613 E23B			L082
   614 E23B F0 FE				beq	L082		; error, ->
   615
   616 E23D E0 AA				cpx	#$AA
   617 E23F			L083
   618 E23F D0 FE				bne	L083		; error, ->
   619
   620
   621 E241 A9 0A				lda	#$0A
   622 E243 85 03				sta	Test
   623
   624 E245 8A					txa
   625 E246			L084
   626 E246 10 FE				bpl	L084		; error, ->
   627 E248			L085
   628 E248 F0 FE				beq	L085		; error, ->
   629
   630 E24A C9 AA				cmp	#$AA
   631 E24C			L086
   632 E24C D0 FE				bne	L086		; error, ->
   633
   634
   635 E24E A9 0B				lda	#$0B
   636 E250 85 03				sta	Test
   637
   638 E252 A9 55				lda	#$55
   639 E254 AA					tax
   640 E255			L087
   641 E255 30 FE				bmi	L087		; error, ->
   642 E257			L088
   643 E257 F0 FE				beq	L088		; error, ->
   644
   645 E259 E0 55				cpx	#$55
   646 E25B			L089
   647 E25B D0 FE				bne	L089		; error, ->
   648
   649 E25D A9 0C				lda	#$0C
   650 E25F 85 03				sta	Test
   651
   652 E261 8A					txa
   653 E262			L089a
   654 E262 30 FE				bmi	L089a		; error, ->
   655 E264			L089b
   656 E264 F0 FE				beq	L089b		; error, ->
   657
   658
   659 E266 C9 55				cmp	#$55
   660 E268			L089c
   661 E268 D0 FE				bne	L089c		; error, ->
   662
   663
   664 E26A A9 0D				lda	#$0D
   665 E26C 85 03				sta	Test
   666
   667 E26E A9 00				lda	#0
   668 E270 AA					tax
   669 E271			L089d
   670 E271 30 FE				bmi	L089d		; error, ->
   671 E273			L089e
   672 E273 D0 FE				bne	L089e		; error, ->
   673
   674
   675 E275 E0 00				cpx	#0
   676 E277			L089f
   677 E277 D0 FE				bne	L089f		; error, ->
   678
   679
   680 E279 A9 0E				lda	#$0E
   681 E27B 85 03				sta	Test
   682
   683 E27D 8A					txa
   684 E27E			L089g
   685 E27E 30 FE				bmi	L089g		; error, ->
   686 E280			L089h
   687 E280 D0 FE				bne	L089h		; error, ->
   688
   689
   690 E282 C9 00				cmp	#0
   691 E284			L089i
   692 E284 D0 FE				bne	L089i		; error, ->
   693
   694
   695 				;**  TAY, TYA
   696 E286 A9 0F				lda	#$0F
   697 E288 85 03				sta	Test
   698
   699 E28A A0 00				ldy	#0
   700 E28C A9 AA				lda	#$AA
   701 E28E A8					tay
   702 E28F			L091
   703 E28F 10 FE				bpl	L091		; error, ->
   704 E291			L092
   705 E291 F0 FE				beq	L092		; error, ->
   706
   707
   708 E293 C0 AA				cpy	#$AA
   709 E295			L093
   710 E295 D0 FE				bne	L093		; error, ->
   711
   712
   713 E297 A9 10				lda	#$10
   714 E299 85 03				sta	Test
   715
   716 E29B 98					tya
   717 E29C			L091a
   718 E29C 10 FE				bpl	L091a		; error, ->
   719 E29E			L092a
   720 E29E F0 FE				beq	L092a		; error, ->
   721
   722
   723 E2A0 C9 AA				cmp	#$AA
   724 E2A2			L093a
   725 E2A2 D0 FE				bne	L093a		; error, ->
   726
   727
   728 E2A4 A9 11				lda	#$11
   729 E2A6 85 03				sta	Test
   730
   731 E2A8 A9 55				lda	#$55
   732 E2AA A8					tay
   733 E2AB			L091b
   734 E2AB 30 FE				bmi	L091b		; error, ->
   735 E2AD			L092b
   736 E2AD F0 FE				beq	L092b		; error, ->
   737
   738
   739 E2AF C0 55				cpy	#$55
   740 E2B1			L093b
   741 E2B1 D0 FE				bne	L093b		; error, ->
   742
   743
   744 E2B3 A9 12				lda	#$12
   745 E2B5 85 03				sta	Test
   746
   747 E2B7 98					tya
   748 E2B8			L091c
   749 E2B8 30 FE				bmi	L091c		; error, ->
   750 E2BA			L092c
   751 E2BA F0 FE				beq	L092c		; error, ->
   752
   753
   754 E2BC C9 55				cmp	#$55
   755 E2BE			L093c
   756 E2BE D0 FE				bne	L093c		; error, ->
   757
   758
   759 E2C0 A9 13				lda	#$13
   760 E2C2 85 03				sta	Test
   761
   762 E2C4 A9 00				lda	#0
   763 E2C6 A8					tay
   764 E2C7			L091d
   765 E2C7 30 FE				bmi	L091d		; error, ->
   766 E2C9			L092d
   767 E2C9 D0 FE				bne	L092d		; error, ->
   768
   769
   770 E2CB C0 00				cpy	#0
   771 E2CD			L093d
   772 E2CD D0 FE				bne	L093d		; error, ->
   773
   774
   775 E2CF A9 14				lda	#$14
   776 E2D1 85 03				sta	Test
   777
   778 E2D3 98					tya
   779 E2D4			L091e
   780 E2D4 30 B9				bmi	L091		; error, ->
   781 E2D6			L092e
   782 E2D6 D0 FE				bne	L092e		; error, ->
   783
   784
   785 E2D8 C9 00				cmp	#0
   786 E2DA			L093e
   787 E2DA D0 FE				bne	L093e		; error, ->
   788
   789
   790 				;**  TXS, TSX
   791 E2DC A9 15				lda	#$15
   792 E2DE 85 03				sta	Test
   793
   794 E2E0 A2 AA				ldx	#$AA
   795 E2E2 9A					txs
   796 E2E3			L101
   797 E2E3 10 FE				bpl	L101		; error, ->
   798 E2E5			L102
   799 E2E5 F0 FE				beq	L102		; error, ->
   800
   801
   802 E2E7 A2 00				ldx	#$00
   803 E2E9 BA					tsx
   804 E2EA			L103
   805 E2EA 10 FE				bpl	L103		; error, ->
   806 E2EC			L104
   807 E2EC F0 FE				beq	L104		; error, ->
   808
   809
   810 E2EE E0 AA				cpx	#$AA
   811 E2F0			L105
   812 E2F0 D0 FE				bne	L105		; error, ->
   813
   814
   815 E2F2 A9 16				lda	#$16
   816 E2F4 85 03				sta	Test
   817
   818 E2F6 A2 55				ldx	#$55
   819 E2F8 9A					txs
   820 E2F9			L103a
   821 E2F9 30 FE				bmi	L103a		; error, ->
   822 E2FB			L104a
   823 E2FB F0 FE				beq	L104a		; error, ->
   824
   825
   826 E2FD A2 00				ldx	#$00
   827 E2FF BA					tsx
   828 E300			L103b
   829 E300 30 FE				bmi	L103b		; error, ->
   830 E302			L104b
   831 E302 F0 FE				beq	L104b		; error, ->
   832
   833
   834 E304 E0 55				cpx	#$55
   835 E306			L105b
   836 E306 D0 FE				bne	L105b		; error, ->
   837
   838
   839 E308 A9 17				lda	#$17
   840 E30A 85 03				sta	Test
   841
   842 E30C A2 00				ldx	#0
   843 E30E 9A					txs
   844 E30F			L103c
   845 E30F 30 FE				bmi	L103c		; error, ->
   846 E311			L104c
   847 E311 D0 FE				bne	L104c		; error, ->
   848
   849
   850 E313 A2 55				ldx	#$55
   851 E315 BA					tsx
   852 E316			L103d
   853 E316 30 FE				bmi	L103d		; error, ->
   854 E318			L104d
   855 E318 D0 FE				bne	L104d		; error, ->
   856
   857
   858 E31A E0 00				cpx	#0
   859 E31C			L105d
   860 E31C D0 FE				bne	L105d		; error, ->
   861
   862
   863 				;**  PHA, PLA
   864 E31E A9 17				lda	#$17
   865 E320 85 03				sta	Test
   866
   867 E322 A9 AA				lda	#$AA
   868 E324 48					pha
   869 E325 68					pla
   870 E326			L111
   871 E326 F0 FE				beq	L111		; error, ->
   872 E328			L112
   873 E328 10 FE				bpl	L112		; error, ->
   874
   875
   876 E32A A9 18				lda	#$18
   877 E32C 85 03				sta	Test
   878
   879 E32E A9 55				lda	#$55
   880 E330 48					pha
   881 E331 68					pla
   882 E332			L113
   883 E332 F0 FE				beq	L113		; error, ->
   884 E334			L114
   885 E334 30 FE				bmi	L114		; error, ->
   886
   887
   888 E336 A9 19				lda	#$19
   889 E338 85 03				sta	Test
   890
   891 E33A A9 00				lda	#0
   892 E33C 48					pha
   893 E33D 68					pla
   894 E33E			L115
   895 E33E D0 FE				bne	L115		; error, ->
   896 E340			L116
   897 E340 30 FE				bmi	L116		; error, ->
   898
   899
   900 				;**  DEX
   901 E342 A9 1A				lda	#$1A
   902 E344 85 03				sta	Test
   903
   904 E346 A2 81				ldx	#$81
   905 E348 CA					dex
   906 E349			L121
   907 E349 F0 FE				beq	L121		; error, ->
   908 E34B			L122
   909 E34B 10 FE				bpl	L122		; error, ->
   910
   911
   912 E34D CA					dex
   913 E34E			L121a
   914 E34E F0 FE				beq	L121a		; error, ->
   915 E350			L122a
   916 E350 30 FE				bmi	L122a		; error, ->
   917
   918
   919 E352 A9 1B				lda	#$1B
   920 E354 85 03				sta	Test
   921
   922 E356 A2 02				ldx	#2
   923 E358 CA					dex
   924 E359			L121b
   925 E359 F0 FE				beq	L121b		; error, ->
   926 E35B			L122b
   927 E35B 30 FE				bmi	L122b		; error, ->
   928
   929
   930 E35D CA					dex
   931 E35E			L121c
   932 E35E D0 FE				bne	L121c		; error, ->
   933 E360			L122c
   934 E360 30 FE				bmi	L122c		; error, ->
   935
   936
   937 E362 CA					dex
   938 E363			L121d
   939 E363 F0 FE				beq	L121d		; error, ->
   940 E365			L122d
   941 E365 10 FE				bpl	L122d		; error, ->
   942
   943
   944 				;**  INX
   945 E367 A9 1C				lda	#$1C
   946 E369 85 03				sta	Test
   947
   948 E36B A2 FE				ldx	#$FE
   949 E36D E8					inx
   950 E36E			L121e
   951 E36E F0 FE				beq	L121e		; error, ->
   952 E370			L122e
   953 E370 10 FE				bpl	L122e		; error, ->
   954
   955
   956 E372 E8					inx
   957 E373			L121f
   958 E373 D0 FE				bne	L121f		; error, ->
   959 E375			L122f
   960 E375 30 FE				bmi	L122f		; error, ->
   961
   962
   963 E377 E8					inx
   964 E378			L121g
   965 E378 F0 FE				beq	L121g		; error, ->
   966 E37A			L122g
   967 E37A 30 FE				bmi	L122g		; error, ->
   968
   969
   970 E37C A9 1D				lda	#$1D
   971 E37E 85 03				sta	Test
   972
   973 E380 A2 7E				ldx	#$7E
   974 E382 E8					inx
   975 E383			L121h
   976 E383 F0 FE				beq	L121h		; error, ->
   977 E385			L122h
   978 E385 30 FE				bmi	L122h		; error, ->
   979
   980
   981 E387 E8					inx
   982 E388			L121i
   983 E388 F0 FE				beq	L121i		; error, ->
   984 E38A			L122i
   985 E38A 10 FE				bpl	L122i		; error, ->
   986
   987 				;**  DEY
   988 E38C A9 1E				lda	#$1E
   989 E38E 85 03				sta	Test
   990
   991 E390 A0 81				ldy	#$81
   992 E392 88					dey
   993 E393			L131
   994 E393 F0 FE				beq	L131		; error, ->
   995 E395			L132
   996 E395 10 FE				bpl	L132		; error, ->
   997
   998
   999 E397 88					dey
  1000 E398			L131a
  1001 E398 F0 FE				beq	L131a		; error, ->
  1002 E39A			L132a
  1003 E39A 30 FE				bmi	L132a		; error, ->
  1004
  1005
  1006 E39C A9 1F				lda	#$1F
  1007 E39E 85 03				sta	Test
  1008
  1009 E3A0 A0 02				ldy	#2
  1010 E3A2 88					dey
  1011 E3A3			L131b
  1012 E3A3 F0 FE				beq	L131b		; error, ->
  1013 E3A5			L132b
  1014 E3A5 30 FE				bmi	L132b		; error, ->
  1015
  1016
  1017 E3A7 88					dey
  1018 E3A8			L131c
  1019 E3A8 D0 FE				bne	L131c		; error, ->
  1020 E3AA			L132c
  1021 E3AA 30 FE				bmi	L132c		; error, ->
  1022
  1023
  1024 E3AC 88					dey
  1025 E3AD			L131d
  1026 E3AD F0 FE				beq	L131d		; error, ->
  1027 E3AF			L132d
  1028 E3AF 10 FE				bpl	L132d		; error, ->
  1029
  1030 				;**  INY
  1031 E3B1 A9 20				lda	#$20
  1032 E3B3 85 03				sta	Test
  1033
  1034 E3B5 A0 FE				ldy	#$FE
  1035 E3B7 C8					iny
  1036 E3B8			L131e
  1037 E3B8 F0 FE				beq	L131e		; error, ->
  1038 E3BA			L132e
  1039 E3BA 10 FE				bpl	L132e		; error, ->
  1040
  1041
  1042 E3BC C8					iny
  1043 E3BD			L131f
  1044 E3BD D0 FE				bne	L131f		; error, ->
  1045 E3BF			L132f
  1046 E3BF 30 FE				bmi	L132f		; error, ->
  1047
  1048
  1049 E3C1 C8					iny
  1050 E3C2			L131g
  1051 E3C2 F0 FE				beq	L131g		; error, ->
  1052 E3C4			L132g
  1053 E3C4 30 FE				bmi	L132g		; error, ->
  1054
  1055
  1056 E3C6 A9 21				lda	#$21
  1057 E3C8 85 03				sta	Test
  1058
  1059 E3CA A0 7E				ldy	#$7E
  1060 E3CC C8					iny
  1061 E3CD			L131h
  1062 E3CD F0 FE				beq	L131h		; error, ->
  1063 E3CF			L132h
  1064 E3CF 30 FE				bmi	L132h		; error, ->
  1065
  1066
  1067 E3D1 C8					iny
  1068 E3D2			L131i
  1069 E3D2 F0 FE				beq	L131i		; error, ->
  1070 E3D4			L132i
  1071 E3D4 10 FE				bpl	L132i		; error, ->
  1072
  1073
  1074 				;**  LDA indexed  (1)
  1075 				;* LDA $xx,X
  1076 E3D6 A9 22				lda	#$22
  1077 E3D8 85 03				sta	Test
  1078
  1079 E3DA A9 A3				lda	#$A3
  1080 E3DC 85 50				sta	$50
  1081
  1082 E3DE A2 30				ldx	#$30
  1083 E3E0 B5 20				lda	$20,X
  1084 E3E2			L141
  1085 E3E2 F0 FE				beq	L141		; error, ->
  1086 E3E4			L142
  1087 E3E4 10 FE				bpl	L142		; error, ->
  1088
  1089
  1090 E3E6 C9 A3				cmp	#$A3
  1091 E3E8			L143
  1092 E3E8 D0 FE				bne	L143		; error, ->
  1093
  1094
  1095 E3EA A9 23				lda	#$23
  1096 E3EC 85 03				sta	Test
  1097
  1098 E3EE A9 A9				lda	#$A9
  1099 E3F0 85 20				sta	$20
  1100
  1101 E3F2 B5 F0				lda	$F0,X
  1102 E3F4			L141a
  1103 E3F4 F0 FE				beq	L141a		; error, ->
  1104 E3F6			L142a
  1105 E3F6 10 FE				bpl	L142a		; error, ->
  1106
  1107
  1108 E3F8 C9 A9				cmp	#$A9
  1109 E3FA			L143a
  1110 E3FA D0 FE				bne	L143a		; error, ->
  1111
  1112
  1113 E3FC A9 24				lda	#$24
  1114 E3FE 85 03				sta	Test
  1115
  1116 E400 A9 33				lda	#$33
  1117 E402 85 50				sta	$50
  1118
  1119 E404 B5 20				lda	$20,X
  1120 E406			L141b
  1121 E406 F0 FE				beq	L141b		; error, ->
  1122 E408			L142b
  1123 E408 30 FE				bmi	L142b		; error, ->
  1124
  1125
  1126 E40A C9 33				cmp	#$33
  1127 E40C			L143b
  1128 E40C D0 FE				bne	L143b		; error, ->
  1129
  1130
  1131 E40E A9 25				lda	#$25
  1132 E410 85 03				sta	Test
  1133
  1134 E412 A9 35				lda	#$35
  1135 E414 85 20				sta	$20
  1136
  1137 E416 B5 F0				lda	$F0,X
  1138 E418			L141c
  1139 E418 F0 FE				beq	L141c		; error, ->
  1140 E41A			L142c
  1141 E41A 30 FE				bmi	L142c		; error, ->
  1142
  1143
  1144 E41C C9 35				cmp	#$35
  1145 E41E			L143c
  1146 E41E D0 FE				bne	L143c		; error, ->
  1147
  1148
  1149 E420 A9 26				lda	#$26
  1150 E422 85 03				sta	Test
  1151
  1152 E424 A9 00				lda	#0
  1153 E426 85 50				sta	$50
  1154
  1155 E428 B5 20				lda	$20,X
  1156 E42A			L141d
  1157 E42A D0 FE				bne	L141d		; error, ->
  1158 E42C			L142d
  1159 E42C 30 FE				bmi	L142d		; error, ->
  1160
  1161
  1162 E42E C9 00				cmp	#0
  1163 E430			L143d
  1164 E430 D0 FE				bne	L143d		; error, ->
  1165
  1166
  1167 E432 A9 27				lda	#$27
  1168 E434 85 03				sta	Test
  1169
  1170 E436 A9 00				lda	#0
  1171 E438 85 20				sta	$20
  1172
  1173 E43A B5 F0				lda	$F0,X
  1174 E43C			L141e
  1175 E43C D0 FE				bne	L141e		; error, ->
  1176 E43E			L142e
  1177 E43E 30 FE				bmi	L142e		; error, ->
  1178
  1179
  1180 E440 C9 00				cmp	#0
  1181 E442			L143e
  1182 E442 D0 FE				bne	L143e		; error, ->
  1183
  1184
  1185 				;* LDA $xxxx,X
  1186 E444 A9 28				lda	#$28
  1187 E446 85 03				sta	Test
  1188
  1189 E448 A9 AA				lda	#$AA
  1190 E44A 8D 50 10				sta	TmpAB0+$50
  1191
  1192 E44D A2 30				ldx	#$30
  1193 E44F BD 20 10				lda	TmpAB0+$20,X
  1194 E452			L151
  1195 E452 F0 FE				beq	L151		; error, ->
  1196 E454			L152
  1197 E454 10 FE				bpl	L152		; error, ->
  1198
  1199
  1200 E456 C9 AA				cmp	#$AA
  1201 E458			L153
  1202 E458 D0 FE				bne	L153		; error, ->
  1203
  1204
  1205 E45A A9 29				lda	#$29
  1206 E45C 85 03				sta	Test
  1207
  1208 E45E A9 33				lda	#$33
  1209 E460 8D 50 10				sta	TmpAB0+$50
  1210
  1211 E463 BD 20 10				lda	TmpAB0+$20,X
  1212 E466			L151a
  1213 E466 F0 FE				beq	L151a		; error, ->
  1214 E468			L152a
  1215 E468 30 FE				bmi	L152a		; error, ->
  1216
  1217
  1218 E46A C9 33				cmp	#$33
  1219 E46C			L153a
  1220 E46C D0 FE				bne	L153a		; error, ->
  1221
  1222
  1223 E46E A9 2A				lda	#$2A
  1224 E470 85 03				sta	Test
  1225
  1226 E472 A9 00				lda	#0
  1227 E474 8D 50 10				sta	TmpAB0+$50
  1228
  1229 E477 BD 20 10				lda	TmpAB0+$20,X
  1230 E47A			L151b
  1231 E47A D0 FE				bne	L151b		; error, ->
  1232 E47C			L152b
  1233 E47C 30 FE				bmi	L152b		; error, ->
  1234
  1235
  1236 E47E C9 00				cmp	#0
  1237 E480			L153b
  1238 E480 D0 FE				bne	L153b		; error, ->
  1239
  1240
  1241 				;* LDA $xxxx,Y
  1242 E482 A9 2B				lda	#$2B
  1243 E484 85 03				sta	Test
  1244
  1245 E486 A9 AA				lda	#$AA
  1246 E488 8D 50 10				sta	TmpAB0+$50
  1247
  1248 E48B A0 30				ldy	#$30
  1249 E48D B9 20 10				lda	TmpAB0+$20,Y
  1250 E490			L161
  1251 E490 F0 FE				beq	L161		; error, ->
  1252 E492			L162
  1253 E492 10 FE				bpl	L162		; error, ->
  1254
  1255
  1256 E494 C9 AA				cmp	#$AA
  1257 E496			L163
  1258 E496 D0 FE				bne	L163		; error, ->
  1259
  1260
  1261 E498 A9 2C				lda	#$2C
  1262 E49A 85 03				sta	Test
  1263
  1264 E49C A9 33				lda	#$33
  1265 E49E 8D 50 10				sta	TmpAB0+$50
  1266
  1267 E4A1 B9 20 10				lda	TmpAB0+$20,Y
  1268 E4A4			L161a
  1269 E4A4 F0 FE				beq	L161a		; error, ->
  1270 E4A6			L162a
  1271 E4A6 30 FE				bmi	L162a		; error, ->
  1272
  1273
  1274 E4A8 C9 33				cmp	#$33
  1275 E4AA			L163a
  1276 E4AA D0 FE		 		bne	L163a		; error, ->
  1277
  1278
  1279 E4AC A9 2D				lda	#$2D
  1280 E4AE 85 03				sta	Test
  1281
  1282 E4B0 A9 00				lda	#0
  1283 E4B2 8D 50 10				sta	TmpAB0+$50
  1284
  1285 E4B5 B9 20 10				lda	TmpAB0+$20,Y
  1286 E4B8			L161b
  1287 E4B8 D0 FE				bne	L161b		; error, ->
  1288 E4BA			L162b
  1289 E4BA 30 FE				bmi	L162b		; error, ->
  1290
  1291
  1292 E4BC C9 00				cmp	#0
  1293 E4BE			L163b
  1294 E4BE D0 FE				bne	L163b		; error, ->
  1295
  1296 							
  1297 				;**  STA indexed  (1)
  1298 				;* STA $xx,X
  1299 E4C0 A9 2E				lda	#$2E
  1300 E4C2 85 03				sta	Test
  1301 E4C4 85 50				sta	$50
  1302 E4C6 85 20				sta	$20
  1303
  1304 E4C8 A2 30				ldx	#$30
  1305 E4CA A9 CA				lda	#$CA
  1306 E4CC 95 20				sta	$20,X
  1307
  1308 E4CE A5 50				lda	$50
  1309 E4D0 C9 CA				cmp	#$CA
  1310 E4D2			L171
  1311 E4D2 D0 FE				bne	L171		; error, ->
  1312
  1313
  1314 E4D4 A9 2F				lda	#$2F
  1315 E4D6 85 03				sta	Test
  1316
  1317 E4D8 A9 AC				lda	#$AC
  1318 E4DA 95 F0				sta	$F0,X
  1319
  1320 E4DC A5 20				lda	$20
  1321 E4DE C9 AC				cmp	#$AC
  1322 E4E0			L172
  1323 E4E0 D0 FE				bne	L172		; error, ->
  1324
  1325
  1326 E4E2 A9 30				lda	#$30
  1327 E4E4 85 03				sta	Test
  1328
  1329 E4E6 A9 5A				lda	#$5A
  1330 E4E8 95 20				sta	$20,X
  1331
  1332 E4EA A5 50				lda	$50
  1333 E4EC C9 5A				cmp	#$5A
  1334 E4EE			L173
  1335 E4EE D0 FE				bne	L173		; error, ->
  1336
  1337
  1338 E4F0 A9 31				lda	#$31
  1339 E4F2 85 03				sta	Test
  1340
  1341 E4F4 A9 5C				lda	#$5C
  1342 E4F6 95 F0				sta	$F0,X
  1343
  1344 E4F8 A5 20				lda	$20
  1345 E4FA C9 5C				cmp	#$5C
  1346 E4FC			L174
  1347 E4FC D0 FE				bne	L174		; error, ->
  1348
  1349
  1350 E4FE A9 32				lda	#$32
  1351 E500 85 03				sta	Test
  1352
  1353 E502 A9 00				lda	#0
  1354 E504 95 20				sta	$20,X
  1355
  1356 E506 A5 50				lda	$50
  1357 E508			L175
  1358 E508 D0 FE				bne	L175		; error, ->
  1359
  1360
  1361 E50A A9 33				lda	#$33
  1362 E50C 85 03				sta	Test
  1363
  1364 E50E A9 00				lda	#0
  1365 E510 95 F0				sta	$F0,X
  1366
  1367 E512 A5 20				lda	$20
  1368 E514			L176
  1369 E514 D0 FE				bne	L176		; error, ->
  1370
  1371
  1372 				;* STA $xxxx,X
  1373 E516 A9 34				lda	#$34
  1374 E518 85 03				sta	Test
  1375 E51A 8D 50 10				sta	TmpAB0+$50
  1376
  1377 E51D A9 AA				lda	#$AA
  1378 E51F 9D 20 10				sta	TmpAB0+$20,X
  1379
  1380 E522 AD 50 10				lda	TmpAB0+$50
  1381 E525 C9 AA				cmp	#$AA
  1382 E527			L177
  1383 E527 D0 FE				bne	L177		; error, ->
  1384
  1385
  1386 E529 A9 35				lda	#$35
  1387 E52B 85 03				sta	Test
  1388 E52D 8D 50 10				sta	TmpAB0+$50
  1389
  1390 E530 A9 55				lda	#$55
  1391 E532 9D 20 10				sta	TmpAB0+$20,X
  1392
  1393 E535 AD 50 10				lda	TmpAB0+$50
  1394 E538 C9 55				cmp	#$55
  1395 E53A			L178
  1396 E53A D0 FE				bne	L178		; error, ->
  1397
  1398
  1399 E53C A9 36				lda	#$36
  1400 E53E 85 03				sta	Test
  1401 E540 8D 50 10				sta	TmpAB0+$50
  1402
  1403 E543 A9 00				lda	#0
  1404 E545 9D 20 10				sta	TmpAB0+$20,X
  1405
  1406 E548 AD 50 10				lda	TmpAB0+$50
  1407 E54B			L179
  1408 E54B D0 FE				bne	L179		; error, ->
  1409
  1410
  1411 				;* STA $xxxx,Y
  1412 E54D A9 37				lda	#$37
  1413 E54F 85 03				sta	Test
  1414 E551 8D 50 10				sta	TmpAB0+$50
  1415
  1416 E554 A9 AA				lda	#$AA
  1417 E556 99 20 10				sta	TmpAB0+$20,Y
  1418
  1419 E559 AD 50 10				lda	TmpAB0+$50
  1420 E55C C9 AA				cmp	#$AA
  1421 E55E			L179a
  1422 E55E D0 FE				bne	L179a		; error, ->
  1423
  1424
  1425 E560 A9 38				lda	#$38
  1426 E562 85 03				sta	Test
  1427 E564 8D 50 10				sta	TmpAB0+$50
  1428
  1429 E567 A9 55				lda	#$55
  1430 E569 9D 20 10				sta	TmpAB0+$20,X
  1431
  1432 E56C AD 50 10				lda	TmpAB0+$50
  1433 E56F C9 55				cmp	#$55
  1434 E571			L179b
  1435 E571 D0 FE				bne	L179b		; error, ->
  1436
  1437
  1438 E573 A9 39				lda	#$39
  1439 E575 85 03				sta	Test
  1440 E577 8D 50 10				sta	TmpAB0+$50
  1441
  1442 E57A A9 00				lda	#0
  1443 E57C 9D 20 10				sta	TmpAB0+$20,X
  1444
  1445 E57F AD 50 10				lda	TmpAB0+$50
  1446 E582			L179c
  1447 E582 D0 FE				bne	L179c		; error, ->
  1448
  1449
  1450 				;**  LDA indexed  (2)
  1451 				;* LDA ($xx,X)
  1452 E584 A9 3A				lda	#$3A
  1453 E586 85 03				sta	Test
  1454
  1455 E588 A9 AA				lda	#$AA
  1456 E58A 85 50				sta	$50
  1457 E58C 8D AA 10				sta	TmpAB0+$AA
  1458
  1459 E58F A9 10				lda	#$10
  1460 E591 85 51				sta	$51
  1461
  1462 E593 A2 30				ldx	#$30
  1463 E595 A1 20				lda	($20,X)
  1464 E597			L181
  1465 E597 F0 FE				beq	L181		; error, ->
  1466 E599			L182
  1467 E599 10 FE				bpl	L182		; error, ->
  1468
  1469
  1470 E59B C9 AA				cmp	#$AA
  1471 E59D			L183
  1472 E59D D0 FE				bne	L183		; error, ->
  1473
  1474
  1475 E59F A9 3B				lda	#$3B
  1476 E5A1 85 03				sta	Test
  1477
  1478 E5A3 A9 AA				lda	#$AA
  1479 E5A5 85 20				sta	$20
  1480
  1481 E5A7 A9 10				lda	#$10
  1482 E5A9 85 21				sta	$21
  1483
  1484 E5AB A1 F0				lda	($F0,X)
  1485 E5AD			L181a
  1486 E5AD F0 FE				beq	L181a		; error, ->
  1487 E5AF			L182a
  1488 E5AF 10 FE				bpl	L182a		; error, ->
  1489
  1490
  1491 E5B1 C9 AA				cmp	#$AA
  1492 E5B3			L183a
  1493 E5B3 D0 FE				bne	L183a		; error, ->
  1494
  1495
  1496 E5B5 A9 3C				lda	#$3C
  1497 E5B7 85 03				sta	Test
  1498
  1499 E5B9 A9 33				lda	#$33
  1500 E5BB 8D AA 10				sta	TmpAB0+$AA
  1501
  1502 E5BE A1 20				lda	($20,X)
  1503 E5C0			L181b
  1504 E5C0 F0 FE				beq	L181b		; error, ->
  1505 E5C2			L182b
  1506 E5C2 30 FE				bmi	L182b		; error, ->
  1507
  1508
  1509 E5C4 C9 33				cmp	#$33
  1510 E5C6			L183b
  1511 E5C6 D0 FE				bne	L183b		; error, ->
  1512
  1513
  1514 E5C8 A9 3D				lda	#$3D
  1515 E5CA 85 03				sta	Test
  1516
  1517 E5CC A9 33				lda	#$33
  1518 E5CE 8D AA 10				sta	TmpAB0+$AA
  1519
  1520 E5D1 A1 F0				lda	($F0,X)
  1521 E5D3			L181c
  1522 E5D3 F0 FE				beq	L181c		; error, ->
  1523 E5D5			L182c
  1524 E5D5 30 FE				bmi	L182c		; error, ->
  1525
  1526
  1527 E5D7 C9 33				cmp	#$33
  1528 E5D9			L183c
  1529 E5D9 D0 FE				bne	L183c		; error, ->
  1530
  1531
  1532 E5DB A9 3E				lda	#$3E
  1533 E5DD 85 03				sta	Test
  1534
  1535 E5DF A9 00				lda	#0
  1536 E5E1 8D AA 10				sta	TmpAB0+$AA
  1537
  1538 E5E4 A1 20				lda	($20,X)
  1539 E5E6			L181d
  1540 E5E6 D0 FE				bne	L181d		; error, ->
  1541 E5E8			L182d
  1542 E5E8 30 FE				bmi	L182d		; error, ->
  1543
  1544
  1545 E5EA C9 00				cmp	#0
  1546 E5EC			L183d
  1547 E5EC D0 FE				bne	L183d		; error, ->
  1548
  1549
  1550 E5EE A9 3F				lda	#$3F
  1551 E5F0 85 03				sta	Test
  1552
  1553 E5F2 A9 00				lda	#0
  1554 E5F4 8D AA 10				sta	TmpAB0+$AA
  1555
  1556 E5F7 A1 F0				lda	($F0,X)
  1557 E5F9			L181e
  1558 E5F9 D0 FE				bne	L181e		; error, ->
  1559 E5FB			L182e
  1560 E5FB 30 FE				bmi	L182e		; error, ->
  1561
  1562
  1563 E5FD C9 00				cmp	#0
  1564 E5FF			L183e
  1565 E5FF D0 FE				bne	L183e		; error, ->
  1566
  1567
  1568 				;* LDA ($xx),Y
  1569 E601 A9 40				lda	#$40
  1570 E603 85 03				sta	Test
  1571
  1572 E605 A9 AA				lda	#$AA
  1573 E607 8D AA 10				sta	TmpAB0+$AA
  1574
  1575 E60A A9 00				lda	#0
  1576 E60C 85 50				sta	$50
  1577
  1578 E60E A9 10				lda	#$10
  1579 E610 85 51				sta	$51
  1580
  1581 E612 A0 AA				ldy	#$AA
  1582 E614 B1 50				lda	($50),Y
  1583 E616			L191
  1584 E616 F0 FE				beq	L191		; error, ->
  1585 E618			L192
  1586 E618 10 FE				bpl	L192		; error, ->
  1587
  1588
  1589 E61A C9 AA				cmp	#$AA
  1590 E61C			L193
  1591 E61C D0 FE				bne	L193		; error, ->
  1592
  1593
  1594 E61E A9 41				lda	#$41
  1595 E620 85 03				sta	Test
  1596
  1597 E622 A9 55				lda	#$55
  1598 E624 8D AA 10				sta	TmpAB0+$AA
  1599
  1600 E627 B1 50				lda	($50),Y
  1601 E629			L194
  1602 E629 F0 FE				beq	L194		; error, ->
  1603 E62B			L195
  1604 E62B 30 FE				bmi	L195		; error, ->
  1605
  1606
  1607 E62D C9 55				cmp	#$55
  1608 E62F			L196
  1609 E62F D0 FE				bne	L196		; error, ->
  1610
  1611
  1612 E631 A9 42				lda	#$42
  1613 E633 85 03				sta	Test
  1614
  1615 E635 A9 00				lda	#0
  1616 E637 8D AA 10				sta	TmpAB0+$AA
  1617
  1618 E63A B1 50				lda	($50),Y
  1619 E63C			L197
  1620 E63C D0 FE				bne	L197		; error, ->
  1621 E63E			L198
  1622 E63E 30 FE				bmi	L198		; error, ->
  1623
  1624
  1625 E640 C9 00				cmp	#0
  1626 E642			L199
  1627 E642 D0 FE				bne	L199		; error, ->
  1628
  1629
  1630 				;**  STA indexed  (2)
  1631 				;* STA ($xx,X)
  1632 E644 A9 43				lda	#$43
  1633 E646 85 03				sta	Test
  1634 E648 8D AA 10				sta	TmpAB0+$AA
  1635
  1636 E64B A9 10				lda	#$10
  1637 E64D 85 51				sta	$51
  1638
  1639 E64F A9 AA				lda	#$AA
  1640 E651 85 50				sta	$50
  1641
  1642 E653 A2 30				ldx	#$30
  1643 E655 81 20				sta	($20,X)
  1644
  1645 E657 AD AA 10				lda	TmpAB0+$AA
  1646 E65A C9 AA				cmp	#$AA
  1647 E65C			L201
  1648 E65C D0 FE				bne	L201		; error, ->
  1649
  1650
  1651 E65E A9 44				lda	#$44
  1652 E660 85 03				sta	Test
  1653 E662 8D AA 10				sta	TmpAB0+$AA
  1654
  1655 E665 A9 AA				lda	#$AA
  1656 E667 85 20				sta	$20
  1657
  1658 E669 A9 10				lda	#$10
  1659 E66B 85 21				sta	$21
  1660
  1661 E66D A9 AA				lda	#$AA
  1662 E66F 81 F0				sta	($F0,X)
  1663
  1664 E671 AD AA 10				lda	TmpAB0+$AA
  1665 E674 C9 AA				cmp	#$AA
  1666 E676			L202
  1667 E676 D0 FE				bne	L202		; error, ->
  1668
  1669
  1670 E678 A9 45				lda	#$45
  1671 E67A 85 03				sta	Test
  1672 E67C 8D AA 10				sta	TmpAB0+$AA
  1673
  1674 E67F A9 55				lda	#$55
  1675 E681 81 20				sta	($20,X)
  1676
  1677 E683 AD AA 10				lda	TmpAB0+$AA
  1678 E686 C9 55				cmp	#$55
  1679 E688			L203
  1680 E688 D0 FE				bne	L203		; error, ->
  1681
  1682
  1683 E68A A9 46				lda	#$46
  1684 E68C 85 03				sta	Test
  1685 E68E 8D AA 10				sta	TmpAB0+$AA
  1686
  1687 E691 A9 55				lda	#$55
  1688 E693 81 F0				sta	($F0,X)
  1689
  1690 E695 AD AA 10				lda	TmpAB0+$AA
  1691 E698 C9 55				cmp	#$55
  1692 E69A			L204
  1693 E69A D0 FE				bne	L204		; error, ->
  1694
  1695
  1696 E69C A9 47				lda	#$47
  1697 E69E 85 03				sta	Test
  1698 E6A0 8D AA 10				sta	TmpAB0+$AA
  1699
  1700 E6A3 A9 00				lda	#0
  1701 E6A5 81 20				sta	($20,X)
  1702
  1703 E6A7 AD AA 10				lda	TmpAB0+$AA
  1704 E6AA			L205
  1705 E6AA D0 FE				bne	L205		; error, ->
  1706
  1707
  1708 E6AC A9 47				lda	#$47
  1709 E6AE 85 03				sta	Test
  1710 E6B0 8D AA 10				sta	TmpAB0+$AA
  1711
  1712 E6B3 A9 00				lda	#0
  1713 E6B5 81 F0				sta	($F0,X)
  1714
  1715 E6B7 AD AA 10				lda	TmpAB0+$AA
  1716 E6BA			L206
  1717 E6BA D0 FE				bne	L206		; error, ->
  1718
  1719
  1720 				;* STA ($xx),Y
  1721 E6BC A9 49				lda	#$49
  1722 E6BE 85 03				sta	Test
  1723 E6C0 8D AA 10				sta	TmpAB0+$AA
  1724
  1725 E6C3 A9 10				lda	#$10
  1726 E6C5 85 19				sta	$19
  1727
  1728 E6C7 A9 00				lda	#0
  1729 E6C9 85 18				sta	$18
  1730
  1731 E6CB A0 AA				ldy	#$AA
  1732 E6CD A9 AA				lda	#$AA
  1733 E6CF 91 18				sta	($18),Y
  1734
  1735 E6D1 AD AA 10				lda	TmpAB0+$AA
  1736 E6D4 C9 AA				cmp	#$AA
  1737 E6D6			L211
  1738 E6D6 D0 FE				bne	L211		; error, ->
  1739
  1740
  1741 E6D8 A9 4A				lda	#$4A
  1742 E6DA 85 03				sta	Test
  1743 E6DC 8D AA 10				sta	TmpAB0+$AA
  1744 				 
  1745 E6DF A9 55				lda	#$55
  1746 E6E1 91 18				sta	($18),Y
  1747
  1748 E6E3 AD AA 10				lda	TmpAB0+$AA
  1749 E6E6 C9 55				cmp	#$55
  1750 E6E8			L212
  1751 E6E8 D0 FE				bne	L212		; error, ->
  1752
  1753 E6EA A9 56				lda	#$56 ;4B
  1754 E6EC 85 03				sta	Test
  1755 E6EE 8D AA 10				sta	TmpAB0+$AA
  1756
  1757 E6F1 A9 00				lda	#0
  1758 E6F3 91 18				sta	($18),Y
  1759
  1760 E6F5 AD AA 10				lda	TmpAB0+$AA
  1761 E6F8			L213
  1762 E6F8 D0 FE				bne	L213		; error, ->
  1763
  1764
  1765 				;**  ADC  (1)
  1766 				;  CLC 		; $30 + $30 = $60, returns C = 0, returns V = 0
  1767 				;  LDA #$30
  1768 				;  ADC #$30
  1769
  1770 E6FA A9 4C				lda	#$4C
  1771 E6FC 85 03				sta	Test
  1772 						
  1773 E6FE D8					cld
  1774
  1775 E6FF A9 30				lda	#$30
  1776 E701 85 10				sta	TmpZP0
  1777 E703 8D 00 10				sta	TmpAB0
  1778
  1779 E706 18					clc
  1780 E707 69 30				adc	#$30
  1781 E709			L221
  1782 E709 B0 FE				bcs	L221		; error, ->
  1783 E70B			L222
  1784 E70B 70 FE				bvs	L222		; error, ->
  1785 E70D			L223
  1786 E70D F0 FE				beq	L223		; error, ->
  1787 E70F			L224
  1788 E70F 30 FE				bmi	L224		; error, ->
  1789
  1790 E711 C9 60				cmp	#$60
  1791 E713			L225
  1792 E713 D0 FE				bne	L225		; error, ->
  1793
  1794
  1795 E715 A9 4D				lda	#$4D
  1796 E717 85 03				sta	Test
  1797
  1798 E719 18					clc
  1799 E71A A9 30				lda	#$30
  1800 E71C 65 10				adc	TmpZP0
  1801 E71E			L221a
  1802 E71E B0 FE				bcs	L221a		; error, ->
  1803 E720			L222a
  1804 E720 70 FE				bvs	L222a		; error, ->
  1805 E722			L223a
  1806 E722 F0 FE				beq	L223a		; error, ->
  1807 E724			L224a
  1808 E724 30 FE				bmi	L224a		; error, ->
  1809
  1810
  1811 E726 C9 60				cmp	#$60
  1812 E728			L225a
  1813 E728 D0 FE				bne	L225a		; error, ->
  1814
  1815
  1816 E72A A9 4E				lda	#$4E
  1817 E72C 85 03				sta	Test
  1818
  1819 E72E 18					clc
  1820 E72F A9 30				lda	#$30
  1821 E731 6D 00 10				adc	TmpAB0
  1822 E734			L221b
  1823 E734 B0 FE				bcs	L221b		; error, ->
  1824 E736			L222b
  1825 E736 70 FE				bvs	L222b		; error, ->
  1826 E738			L223b
  1827 E738 F0 FE				beq	L223b		; error, ->
  1828 E73A			L224b
  1829 E73A 30 FE				bmi	L224b		; error, ->
  1830
  1831
  1832 E73C C9 60				cmp	#$60
  1833 E73E			L225b
  1834 E73E D0 FE				bne	L225b		; error, ->
  1835
  1836
  1837 E740 A9 4F				lda	#$4F
  1838 E742 85 03				sta	Test
  1839
  1840 E744 A9 30				lda	#$30
  1841 E746 AA					tax
  1842 E747 95 30				sta	$30,X
  1843
  1844 E749 18					clc
  1845 E74A 75 30				adc	$30,X
  1846 E74C			L221c
  1847 E74C B0 FE				bcs	L221c		; error, ->
  1848 E74E			L222c
  1849 E74E 70 FE				bvs	L222c		; error, ->
  1850 E750			L223c
  1851 E750 F0 FE				beq	L223c		; error, ->
  1852 E752			L224c
  1853 E752 30 FE				bmi	L224c		; error, ->
  1854
  1855
  1856 E754 C9 60				cmp	#$60
  1857 E756			L225c
  1858 E756 D0 FE				bne	L225c		; error, ->
  1859
  1860
  1861 E758 A9 50				lda	#$50
  1862 E75A 85 03				sta	Test
  1863
  1864 E75C A9 30				lda	#$30
  1865 E75E 9D 00 10				sta	TmpAB0,X
  1866
  1867 E761 18					clc
  1868 E762 7D 00 10				adc	TmpAB0,X
  1869 E765			L221d
  1870 E765 B0 FE				bcs	L221d		; error, ->
  1871 E767			L222d
  1872 E767 70 FE				bvs	L222d		; error, ->
  1873 E769			L223d
  1874 E769 F0 FE				beq	L223d		; error, ->
  1875 E76B			L224d
  1876 E76B 30 FE				bmi	L224d		; error, ->
  1877
  1878
  1879 E76D C9 60				cmp	#$60
  1880 E76F			L225d
  1881 E76F D0 FE				bne	L225d		; error, ->
  1882
  1883
  1884 E771 A9 51				lda	#$51
  1885 E773 85 03				sta	Test
  1886
  1887 E775 A9 30				lda	#$30
  1888 E777 A8					tay
  1889 E778 99 00 10				sta	TmpAB0,Y
  1890
  1891 E77B 18					clc
  1892 E77C 79 00 10				adc	TmpAB0,Y
  1893 E77F			L221e
  1894 E77F B0 FE				bcs	L221e		; error, ->
  1895 E781			L222e
  1896 E781 70 FE				bvs	L222e		; error, ->
  1897 E783			L223e
  1898 E783 F0 FE				beq	L223e		; error, ->
  1899 E785			L224e
  1900 E785 30 FE				bmi	L224e		; error, ->
  1901
  1902
  1903 E787 C9 60				cmp	#$60
  1904 E789			L225e
  1905 E789 D0 FE				bne	L225e		; error, ->
  1906
  1907
  1908 E78B A9 52				lda	#$52
  1909 E78D 85 03				sta	Test
  1910
  1911 E78F A9 10				lda	#$10
  1912 E791 85 51				sta	$51
  1913 E793 85 21				sta	$21
  1914
  1915 E795 A9 AA				lda	#$AA
  1916 E797 85 50				sta	$50
  1917 E799 85 20				sta	$20
  1918
  1919 E79B A2 30				ldx	#$30
  1920 E79D 8A					txa
  1921 E79E 81 20				sta	($20,X)
  1922
  1923 E7A0 18					clc
  1924 E7A1 61 20				adc	($20,X)
  1925 E7A3			L221f
  1926 E7A3 B0 FE				bcs	L221f		; error, ->
  1927 E7A5			L222f
  1928 E7A5 70 FE				bvs	L222f		; error, ->
  1929 E7A7			L223f
  1930 E7A7 F0 FE				beq	L223f		; error, ->
  1931 E7A9			L224f
  1932 E7A9 30 FE				bmi	L224f		; error, ->
  1933
  1934
  1935 E7AB C9 60				cmp	#$60
  1936 E7AD			L225f
  1937 E7AD D0 FE				bne	L225f		; error, ->
  1938
  1939
  1940 E7AF A9 53				lda	#$53
  1941 E7B1 85 03				sta	Test
  1942
  1943 E7B3 A9 30				lda	#$30
  1944 E7B5 81 F0				sta	($F0,X)
  1945
  1946 E7B7 18					clc
  1947 E7B8 61 F0				adc	($F0,X)
  1948 E7BA			L221g
  1949 E7BA B0 FE				bcs	L221g		; error, ->
  1950 E7BC			L222g
  1951 E7BC 70 FE				bvs	L222g		; error, ->
  1952 E7BE			L223g
  1953 E7BE F0 FE				beq	L223g		; error, ->
  1954 E7C0			L224g
  1955 E7C0 30 FE				bmi	L224g		; error, ->
  1956
  1957
  1958 E7C2 C9 60				cmp	#$60
  1959 E7C4			L225g
  1960 E7C4 D0 FE				bne	L225g		; error, ->
  1961
  1962
  1963 				;  CLC 		; $30 + $D0 = $00, returns C = 1, returns V = 0
  1964 				;  LDA #$30
  1965 				;  ADC #$D0
  1966
  1967 E7C6 A9 54				lda	#$54
  1968 E7C8 85 03				sta	Test
  1969
  1970 E7CA A9 D0				lda	#$D0
  1971 E7CC 85 10				sta	TmpZP0
  1972 E7CE 8D 00 10				sta	TmpAB0
  1973
  1974 E7D1 18					clc
  1975 E7D2 A9 30				lda	#$30
  1976 E7D4 69 D0				adc	#$D0
  1977 E7D6			L231
  1978 E7D6 90 FE				bcc	L231		; error, ->
  1979 E7D8			L232
  1980 E7D8 70 FE				bvs	L232		; error, ->
  1981 E7DA			L233
  1982 E7DA D0 FE				bne	L233		; error, ->
  1983 E7DC			L234
  1984 E7DC 30 FE				bmi	L234		; error, ->
  1985
  1986
  1987 E7DE C9 00				cmp	#0
  1988 E7E0			L235
  1989 E7E0 D0 FE				bne	L235		; error, ->
  1990
  1991
  1992 E7E2 A9 55				lda	#$55
  1993 E7E4 85 03				sta	Test
  1994
  1995 E7E6 18					clc
  1996 E7E7 A9 30				lda	#$30
  1997 E7E9 65 10				adc	TmpZP0
  1998 E7EB			L231a
  1999 E7EB 90 FE				bcc	L231a		; error, ->
  2000 E7ED			L232a
  2001 E7ED 70 FE				bvs	L232a		; error, ->
  2002 E7EF			L233a
  2003 E7EF D0 FE				bne	L233a		; error, ->
  2004 E7F1			L234a
  2005 E7F1 30 FE				bmi	L234a		; error, ->
  2006
  2007
  2008 E7F3 C9 00				cmp	#0
  2009 E7F5			L235a
  2010 E7F5 D0 FE				bne	L235a		; error, ->
  2011
  2012
  2013 E7F7 A9 56				lda	#$56
  2014 E7F9 85 03				sta	Test
  2015
  2016 E7FB 18					clc
  2017 E7FC A9 30				lda	#$30
  2018 E7FE 6D 00 10				adc	TmpAB0
  2019 E801			L231b
  2020 E801 90 FE				bcc	L231b		; error, ->
  2021 E803			L232b
  2022 E803 70 FE				bvs	L232b		; error, ->
  2023 E805			L233b
  2024 E805 D0 FE				bne	L233b		; error, ->
  2025 E807			L234b
  2026 E807 30 FE				bmi	L234b		; error, ->
  2027
  2028
  2029 E809 C9 00				cmp	#0
  2030 E80B			L235b
  2031 E80B D0 FE				bne	L235b		; error, ->
  2032
  2033
  2034 E80D A9 57				lda	#$57
  2035 E80F 85 03				sta	Test
  2036
  2037 E811 A2 30				ldx	#$30
  2038 E813 A9 D0				lda	#$D0
  2039 E815 95 30				sta	$30,X
  2040
  2041 E817 18					clc
  2042 E818 A9 30				lda	#$30
  2043 E81A 75 30				adc	$30,X
  2044 E81C			L231c
  2045 E81C 90 FE				bcc	L231c		; error, ->
  2046 E81E			L232c
  2047 E81E 70 FE				bvs	L232c		; error, ->
  2048 E820			L233c
  2049 E820 D0 FE				bne	L233c		; error, ->
  2050 E822			L234c
  2051 E822 30 FE				bmi	L234c		; error, ->
  2052
  2053
  2054 E824 C9 00				cmp	#0
  2055 E826			L235c
  2056 E826 D0 FE				bne	L235c		; error, ->
  2057
  2058
  2059 E828 A9 58				lda	#$58
  2060 E82A 85 03				sta	Test
  2061
  2062 E82C A9 D0				lda	#$D0
  2063 E82E 9D 00 10				sta	TmpAB0,X
  2064
  2065 E831 18					clc
  2066 E832 A9 30				lda	#$30
  2067 E834 7D 00 10				adc	TmpAB0,X
  2068 E837			L231d
  2069 E837 90 FE				bcc	L231d		; error, ->
  2070 E839			L232d
  2071 E839 70 FE				bvs	L232d		; error, ->
  2072 E83B			L233d
  2073 E83B D0 FE				bne	L233d		; error, ->
  2074 E83D			L234d
  2075 E83D 30 FE				bmi	L234d		; error, ->
  2076
  2077
  2078 E83F C9 00				cmp	#0
  2079 E841			L235d
  2080 E841 D0 FE				bne	L235d		; error, ->
  2081
  2082
  2083 E843 A9 59				lda	#$59
  2084 E845 85 03				sta	Test
  2085
  2086 E847 A0 30				ldy	#$30
  2087 E849 A9 D0				lda	#$D0
  2088 E84B 99 00 10				sta	TmpAB0,Y
  2089
  2090 E84E 18					clc
  2091 E84F A9 30				lda	#$30
  2092 E851 79 00 10				adc	TmpAB0,Y
  2093 E854			L231e
  2094 E854 90 FE				bcc	L231e		; error, ->
  2095 E856			L232e
  2096 E856 70 FE				bvs	L232e		; error, ->
  2097 E858			L233e
  2098 E858 D0 FE				bne	L233e		; error, ->
  2099 E85A			L234e
  2100 E85A 30 FE				bmi	L234e		; error, ->
  2101
  2102
  2103 E85C C9 00				cmp	#0
  2104 E85E			L235e
  2105 E85E D0 FE				bne	L235e		; error, ->
  2106
  2107
  2108 E860 A9 5A				lda	#$5A
  2109 E862 85 03				sta	Test
  2110
  2111 E864 A9 10				lda	#$10
  2112 E866 85 51				sta	$51
  2113 E868 85 21				sta	$21
  2114
  2115 E86A A9 AA				lda	#$AA
  2116 E86C 85 50				sta	$50
  2117 E86E 85 20				sta	$20
  2118
  2119 E870 A9 D0				lda	#$D0
  2120 E872 81 20				sta	($20,X)
  2121
  2122 E874 18					clc
  2123 E875 A9 30				lda	#$30
  2124 E877 61 20				adc	($20,X)
  2125 E879			L231f
  2126 E879 90 FE				bcc	L231f		; error, ->
  2127 E87B			L232f
  2128 E87B 70 FE				bvs	L232f		; error, ->
  2129 E87D			L233f
  2130 E87D D0 FE				bne	L233f		; error, ->
  2131 E87F			L234f
  2132 E87F 30 FE				bmi	L234f		; error, ->
  2133
  2134
  2135 E881 C9 00				cmp	#0
  2136 E883			L235f
  2137 E883 D0 FE				bne	L235f		; error, ->
  2138
  2139
  2140 E885 A9 5B				lda	#$5B
  2141 E887 85 03				sta	Test
  2142
  2143 E889 A9 D0				lda	#$D0
  2144 E88B 81 F0				sta	($F0,X)
  2145
  2146 E88D 18					clc
  2147 E88E A9 30				lda	#$30
  2148 E890 61 F0				adc	($F0,X)
  2149 E892			L231g
  2150 E892 90 FE				bcc	L231g		; error, ->
  2151 E894			L232g
  2152 E894 70 FE				bvs	L232g		; error, ->
  2153 E896			L233g
  2154 E896 D0 FE				bne	L233g		; error, ->
  2155 E898			L234g
  2156 E898 30 FE				bmi	L234g		; error, ->
  2157
  2158
  2159 E89A C9 00				cmp	#0
  2160 E89C			L235g
  2161 E89C D0 FE				bne	L235g		; error, ->
  2162
  2163
  2164 				;  CLC 		; $30 + $50 = $80, returns C = 0, returns V = 1
  2165 				;  LDA #$30
  2166 				;  ADC #$50
  2167
  2168 E89E A9 5C				lda	#$5C
  2169 E8A0 85 03				sta	Test
  2170
  2171 E8A2 A9 50				lda	#$50
  2172 E8A4 85 10				sta	TmpZP0
  2173 E8A6 8D 00 10				sta	TmpAB0
  2174
  2175 E8A9 18					clc
  2176 E8AA A9 30				lda	#$30
  2177 E8AC 69 50				adc	#$50
  2178 E8AE			L241
  2179 E8AE B0 FE				bcs	L241		; error, ->
  2180 E8B0			L242
  2181 E8B0 50 FE				bvc	L242		; error, ->
  2182 E8B2			L243
  2183 E8B2 F0 FE				beq	L243		; error, ->
  2184 E8B4			L244
  2185 E8B4 10 FE				bpl	L244		; error, ->
  2186
  2187
  2188 E8B6 C9 80				cmp	#$80
  2189 E8B8			L245
  2190 E8B8 D0 FE				bne	L245		; error, ->
  2191
  2192
  2193 E8BA A9 5D				lda	#$5D
  2194 E8BC 85 03				sta	Test
  2195
  2196 E8BE 18					clc
  2197 E8BF A9 30				lda	#$30
  2198 E8C1 65 10				adc	TmpZP0
  2199 E8C3			L241a
  2200 E8C3 B0 FE				bcs	L241a		; error, ->
  2201 E8C5			L242a
  2202 E8C5 50 FE				bvc	L242a		; error, ->
  2203 E8C7			L243a
  2204 E8C7 F0 FE				beq	L243a		; error, ->
  2205 E8C9			L244a
  2206 E8C9 10 FE				bpl	L244a		; error, ->
  2207
  2208
  2209 E8CB C9 80				cmp	#$80
  2210 E8CD			L245a
  2211 E8CD D0 FE				bne	L245a		; error, ->
  2212
  2213
  2214 E8CF A9 5E				lda	#$5E
  2215 E8D1 85 03				sta	Test
  2216
  2217 E8D3 18					clc
  2218 E8D4 A9 30				lda	#$30
  2219 E8D6 6D 00 10				adc	TmpAB0
  2220 E8D9			L241b
  2221 E8D9 B0 FE				bcs	L241b		; error, ->
  2222 E8DB			L242b
  2223 E8DB 50 FE				bvc	L242b		; error, ->
  2224 E8DD			L243b
  2225 E8DD F0 FE				beq	L243b		; error, ->
  2226 E8DF			L244b
  2227 E8DF 10 FE				bpl	L244b		; error, ->
  2228
  2229
  2230 E8E1 C9 80				cmp	#$80
  2231 E8E3			L245b
  2232 E8E3 D0 FE				bne	L245b		; error, ->
  2233
  2234
  2235 E8E5 A9 5F				lda	#$5F
  2236 E8E7 85 03				sta	Test
  2237
  2238 E8E9 A2 30				ldx	#$30
  2239 E8EB A9 50				lda	#$50
  2240 E8ED 95 30				sta	$30,X
  2241
  2242 E8EF 18					clc
  2243 E8F0 A9 30				lda	#$30
  2244 E8F2 75 30				adc	$30,X
  2245 E8F4			L241c
  2246 E8F4 B0 FE				bcs	L241c		; error, ->
  2247 E8F6			L242c
  2248 E8F6 50 FE				bvc	L242c		; error, ->
  2249 E8F8			L243c
  2250 E8F8 F0 FE				beq	L243c		; error, ->
  2251 E8FA			L244c
  2252 E8FA 10 FE				bpl	L244c		; error, ->
  2253
  2254
  2255 E8FC C9 80				cmp	#$80
  2256 E8FE			L245c
  2257 E8FE D0 FE				bne	L245c		; error, ->
  2258
  2259
  2260 E900 A9 60				lda	#$60
  2261 E902 85 03				sta	Test
  2262
  2263 E904 A9 50				lda	#$50
  2264 E906 9D 00 10				sta	TmpAB0,X
  2265
  2266 E909 18					clc
  2267 E90A A9 30				lda	#$30
  2268 E90C 7D 00 10				adc	TmpAB0,X
  2269 E90F			L241d
  2270 E90F B0 FE				bcs	L241d		; error, ->
  2271 E911			L242d
  2272 E911 50 FE				bvc	L242d		; error, ->
  2273 E913			L243d
  2274 E913 F0 FE				beq	L243d		; error, ->
  2275 E915			L244d
  2276 E915 10 FE				bpl	L244d		; error, ->
  2277
  2278
  2279 E917 C9 80				cmp	#$80
  2280 E919			L245d
  2281 E919 D0 FE				bne	L245d		; error, ->
  2282
  2283
  2284 E91B A9 61				lda	#$61
  2285 E91D 85 03				sta	Test
  2286
  2287 E91F A0 30				ldy	#$30
  2288 E921 A9 50				lda	#$50
  2289 E923 99 00 10				sta	TmpAB0,Y
  2290
  2291 E926 18					clc
  2292 E927 A9 30				lda	#$30
  2293 E929 79 00 10				adc	TmpAB0,Y
  2294 E92C			L241e
  2295 E92C B0 FE				bcs	L241e		; error, ->
  2296 E92E			L242e
  2297 E92E 50 FE				bvc	L242e		; error, ->
  2298 E930			L243e
  2299 E930 F0 FE				beq	L243e		; error, ->
  2300 E932			L244e
  2301 E932 10 FE				bpl	L244e		; error, ->
  2302
  2303
  2304 E934 C9 80				cmp	#$80
  2305 E936			L245e
  2306 E936 D0 FE				bne	L245e		; error, ->
  2307
  2308
  2309 E938 A9 62				lda	#$62
  2310 E93A 85 03				sta	Test
  2311
  2312 E93C A9 10				lda	#$10
  2313 E93E 85 51				sta	$51
  2314 E940 85 21				sta	$21
  2315
  2316 E942 A9 AA				lda	#$AA
  2317 E944 85 50				sta	$50
  2318 E946 85 20				sta	$20
  2319
  2320 E948 A9 50				lda	#$50
  2321 E94A 81 20				sta	($20,X)
  2322
  2323 E94C 18					clc
  2324 E94D A9 30				lda	#$30
  2325 E94F 61 20				adc	($20,X)
  2326 E951			L241f
  2327 E951 B0 FE				bcs	L241f		; error, ->
  2328 E953			L242f
  2329 E953 50 FE				bvc	L242f		; error, ->
  2330 E955			L243f
  2331 E955 F0 FE				beq	L243f		; error, ->
  2332 E957			L244f
  2333 E957 10 FE				bpl	L244f		; error, ->
  2334
  2335
  2336 E959 C9 80				cmp	#$80
  2337 E95B			L245f
  2338 E95B D0 FE				bne	L245f		; error, ->
  2339
  2340
  2341 E95D A9 63				lda	#$63
  2342 E95F 85 03				sta	Test
  2343
  2344 E961 A9 50				lda	#$50
  2345 E963 81 F0				sta	($F0,X)
  2346
  2347 E965 18					clc
  2348 E966 A9 30				lda	#$30
  2349 E968 61 F0				adc	($F0,X)
  2350 E96A			L241g
  2351 E96A B0 FE				bcs	L241g		; error, ->
  2352 E96C			L242g
  2353 E96C 50 FE				bvc	L242g		; error, ->
  2354 E96E			L243g
  2355 E96E F0 FE				beq	L243g		; error, ->
  2356 E970			L244g
  2357 E970 10 FE				bpl	L244g		; error, ->
  2358
  2359
  2360 E972 C9 80				cmp	#$80
  2361 E974			L245g
  2362 E974 D0 FE				bne	L245g		; error, ->
  2363
  2364
  2365 				;  CLC 		; $80 + $FF = $7F, returns C = 1, returns V = 1
  2366 				;  LDA #$80
  2367 				;  ADC #$FF
  2368
  2369 E976 A9 64				lda	#$64
  2370 E978 85 03				sta	Test
  2371
  2372 E97A A9 FF				lda	#$FF
  2373 E97C 85 10				sta	TmpZP0
  2374 E97E 8D 00 10				sta	TmpAB0
  2375
  2376 E981 18					clc
  2377 E982 A9 80				lda	#$80
  2378 E984 69 FF				adc	#$FF
  2379 E986			L251
  2380 E986 90 FE				bcc	L251		; error, ->
  2381 E988			L252
  2382 E988 50 FE				bvc	L252		; error, ->
  2383 E98A			L253
  2384 E98A F0 FE				beq	L253		; error, ->
  2385 E98C			L254
  2386 E98C 30 FE				bmi	L254		; error, ->
  2387
  2388
  2389 E98E C9 7F				cmp	#$7F
  2390 E990			L255
  2391 E990 D0 FE				bne	L255		; error, ->
  2392
  2393
  2394 E992 A9 65				lda	#$65
  2395 E994 85 03				sta	Test
  2396
  2397 E996 18					clc
  2398 E997 A9 80				lda	#$80
  2399 E999 65 10				adc	TmpZP0
  2400 E99B			L251a
  2401 E99B 90 FE				bcc	L251a		; error, ->
  2402 E99D			L252a
  2403 E99D 50 FE				bvc	L252a		; error, ->
  2404 E99F			L253a
  2405 E99F F0 FE				beq	L253a		; error, ->
  2406 E9A1			L254a
  2407 E9A1 30 FE				bmi	L254a		; error, ->
  2408
  2409
  2410 E9A3 C9 7F				cmp	#$7F
  2411 E9A5			L255a
  2412 E9A5 D0 FE				bne	L255a		; error, ->
  2413
  2414
  2415 E9A7 A9 66				lda	#$66
  2416 E9A9 85 03				sta	Test
  2417
  2418 E9AB 18					clc
  2419 E9AC A9 80				lda	#$80
  2420 E9AE 6D 00 10				adc	TmpAB0
  2421 E9B1			L251b
  2422 E9B1 90 FE				bcc	L251b		; error, ->
  2423 E9B3			L252b
  2424 E9B3 50 FE				bvc	L252b		; error, ->
  2425 E9B5			L253b
  2426 E9B5 F0 FE				beq	L253b		; error, ->
  2427 E9B7			L254b
  2428 E9B7 30 FE				bmi	L254b		; error, ->
  2429
  2430
  2431 E9B9 C9 7F				cmp	#$7F
  2432 E9BB			L255b
  2433 E9BB D0 FE				bne	L255b		; error, ->
  2434
  2435
  2436 E9BD A9 67				lda	#$67
  2437 E9BF 85 03				sta	Test
  2438
  2439 E9C1 A2 80				ldx	#$80
  2440 E9C3 A9 FF				lda	#$FF
  2441 E9C5 95 30				sta	$30,X
  2442
  2443 E9C7 18					clc
  2444 E9C8 A9 80				lda	#$80
  2445 E9CA 75 30				adc	$30,X
  2446 E9CC			L251c
  2447 E9CC 90 FE				bcc	L251c		; error, ->
  2448 E9CE			L252c
  2449 E9CE 50 FE				bvc	L252c		; error, ->
  2450 E9D0			L253c
  2451 E9D0 F0 FE				beq	L253c		; error, ->
  2452 E9D2			L254c
  2453 E9D2 30 FE				bmi	L254c		; error, ->
  2454
  2455
  2456 E9D4 C9 7F				cmp	#$7F
  2457 E9D6			L255c
  2458 E9D6 D0 FE				bne	L255c		; error, ->
  2459
  2460
  2461 E9D8 A9 68				lda	#$68
  2462 E9DA 85 03				sta	Test
  2463
  2464 E9DC A9 FF				lda	#$FF
  2465 E9DE 9D 00 10				sta	TmpAB0,X
  2466
  2467 E9E1 18					clc
  2468 E9E2 A9 80				lda	#$80
  2469 E9E4 7D 00 10				adc	TmpAB0,X
  2470 E9E7			L251d
  2471 E9E7 90 FE				bcc	L251d		; error, ->
  2472 E9E9			L252d
  2473 E9E9 50 FE				bvc	L252d		; error, ->
  2474 E9EB			L253d
  2475 E9EB F0 FE				beq	L253d		; error, ->
  2476 E9ED			L254d
  2477 E9ED 30 FE				bmi	L254d		; error, ->
  2478
  2479
  2480 E9EF C9 7F				cmp	#$7F
  2481 E9F1			L255d
  2482 E9F1 D0 FE				bne	L255d		; error, ->
  2483
  2484
  2485 E9F3 A9 69				lda	#$69
  2486 E9F5 85 03				sta	Test
  2487
  2488 E9F7 A0 80				ldy	#$80
  2489 E9F9 A9 FF				lda	#$FF
  2490 E9FB 99 00 10				sta	TmpAB0,Y
  2491
  2492 E9FE 18					clc
  2493 E9FF A9 80				lda	#$80
  2494 EA01 79 00 10				adc	TmpAB0,Y
  2495 EA04			L251e
  2496 EA04 90 FE				bcc	L251e		; error, ->
  2497 EA06			L252e
  2498 EA06 50 FE				bvc	L252e		; error, ->
  2499 EA08			L253e
  2500 EA08 F0 FE				beq	L253e		; error, ->
  2501 EA0A			L254e
  2502 EA0A 30 FE				bmi	L254e		; error, ->
  2503
  2504
  2505 EA0C C9 7F				cmp	#$7F
  2506 EA0E			L255e
  2507 EA0E D0 FE				bne	L255e		; error, ->
  2508
  2509
  2510 EA10 A9 6A				lda	#$6A
  2511 EA12 85 03				sta	Test
  2512
  2513 EA14 A9 10				lda	#$10
  2514 EA16 85 51				sta	$51
  2515 EA18 85 21				sta	$21
  2516
  2517 EA1A A9 AA				lda	#$AA
  2518 EA1C 85 50				sta	$50
  2519 EA1E 85 20				sta	$20
  2520
  2521 EA20 A9 FF				lda	#$FF
  2522 EA22 81 20				sta	($20,X)
  2523
  2524 EA24 18					clc
  2525 EA25 A9 80				lda	#$80
  2526 EA27 61 20				adc	($20,X)
  2527 EA29			L251f
  2528 EA29 90 FE				bcc	L251f		; error, ->
  2529 EA2B			L252f
  2530 EA2B 50 FE				bvc	L252f		; error, ->
  2531 EA2D			L253f
  2532 EA2D F0 FE				beq	L253f		; error, ->
  2533 EA2F			L254f
  2534 EA2F 30 FE				bmi	L254f		; error, ->
  2535
  2536
  2537 EA31 C9 7F				cmp	#$7F
  2538 EA33			L255f
  2539 EA33 D0 FE				bne	L255f		; error, ->
  2540
  2541
  2542 EA35 A9 6B				lda	#$6B
  2543 EA37 85 03				sta	Test
  2544
  2545 EA39 A9 FF				lda	#$FF
  2546 EA3B 81 F0				sta	($F0,X)
  2547
  2548 EA3D 18					clc
  2549 EA3E A9 80				lda	#$80
  2550 EA40 61 F0				adc	($F0,X)
  2551 EA42			L251g
  2552 EA42 90 FE				bcc	L251g		; error, ->
  2553 EA44			L252g
  2554 EA44 50 FE				bvc	L252g		; error, ->
  2555 EA46			L253g
  2556 EA46 F0 FE				beq	L253g		; error, ->
  2557 EA48			L254g
  2558 EA48 30 FE				bmi	L254g		; error, ->
  2559
  2560
  2561 EA4A C9 7F				cmp	#$7F
  2562 EA4C			L255g
  2563 EA4C D0 FE				bne	L255g		; error, ->
  2564
  2565
  2566 				;**  SBC  (1)
  2567 				;  SEC 		; $30 - $30 = $00, returns C = 1, returns V = 0
  2568 				;  LDA #$30
  2569 				;  SBC #$30
  2570
  2571 EA4E A9 6C				lda	#$6C
  2572 EA50 85 03				sta	Test
  2573
  2574 EA52 A9 30				lda	#$30
  2575 EA54 85 10				sta	TmpZP0
  2576 EA56 8D 00 10				sta	TmpAB0
  2577
  2578 EA59 38					sec
  2579 EA5A E9 30				sbc	#$30
  2580 EA5C			L261
  2581 EA5C 90 FE				bcc	L261		; error, ->
  2582 EA5E			L262
  2583 EA5E 70 FE				bvs	L262		; error, ->
  2584 EA60			L263
  2585 EA60 D0 FE				bne	L263		; error, ->
  2586 EA62			L264
  2587 EA62 30 FE				bmi	L264		; error, ->
  2588
  2589
  2590 EA64 C9 00				cmp	#0
  2591 EA66			L265
  2592 EA66 D0 FE				bne	L265		; error, ->
  2593
  2594
  2595 EA68 A9 6D				lda	#$6D
  2596 EA6A 85 03				sta	Test
  2597
  2598 EA6C 38					sec
  2599 EA6D A9 30				lda	#$30
  2600 EA6F E5 10				sbc	TmpZP0
  2601 EA71			L261a
  2602 EA71 90 FE				bcc	L261a		; error, ->
  2603 EA73			L262a
  2604 EA73 70 FE				bvs	L262a		; error, ->
  2605 EA75			L263a
  2606 EA75 D0 FE				bne	L263a		; error, ->
  2607 EA77			L264a
  2608 EA77 30 FE				bmi	L264a		; error, ->
  2609
  2610
  2611 EA79 C9 00				cmp	#0
  2612 EA7B			L265a
  2613 EA7B D0 FE				bne	L265a		; error, ->
  2614
  2615
  2616 EA7D A9 6E				lda	#$6E
  2617 EA7F 85 03				sta	Test
  2618
  2619 EA81 38					sec
  2620 EA82 A9 30				lda	#$30
  2621 EA84 ED 00 10				sbc	TmpAB0
  2622 EA87			L261b
  2623 EA87 90 FE				bcc	L261b		; error, ->
  2624 EA89			L262b
  2625 EA89 70 FE				bvs	L262b		; error, ->
  2626 EA8B			L263b
  2627 EA8B D0 FE				bne	L263b		; error, ->
  2628 EA8D			L264b
  2629 EA8D 30 FE				bmi	L264b		; error, ->
  2630
  2631
  2632 EA8F C9 00				cmp	#0
  2633 EA91			L265b
  2634 EA91 D0 FE				bne	L265b		; error, ->
  2635
  2636
  2637 EA93 A9 6F				lda	#$6F
  2638 EA95 85 03				sta	Test
  2639
  2640 EA97 A9 30				lda	#$30
  2641 EA99 AA					tax
  2642 EA9A 95 30				sta	$30,X
  2643
  2644 EA9C 38					sec
  2645 EA9D F5 30				sbc	$30,X
  2646 EA9F			L261c
  2647 EA9F 90 FE				bcc	L261c		; error, ->
  2648 EAA1			L262c
  2649 EAA1 70 FE				bvs	L262c		; error, ->
  2650 EAA3			L263c
  2651 EAA3 D0 FE				bne	L263c		; error, ->
  2652 EAA5			L264c
  2653 EAA5 30 FE				bmi	L264c		; error, ->
  2654
  2655
  2656 EAA7 C9 00				cmp	#0
  2657 EAA9			L265c
  2658 EAA9 D0 FE				bne	L265c		; error, ->
  2659
  2660
  2661 EAAB A9 70				lda	#$70
  2662 EAAD 85 03				sta	Test
  2663
  2664 EAAF A9 30				lda	#$30
  2665 EAB1 9D 00 10				sta	TmpAB0,X
  2666
  2667 EAB4 38					sec
  2668 EAB5 FD 00 10				sbc	TmpAB0,X
  2669 EAB8			L261d
  2670 EAB8 90 FE				bcc	L261d		; error, ->
  2671 EABA			L262d
  2672 EABA 70 FE				bvs	L262d		; error, ->
  2673 EABC			L263d
  2674 EABC D0 FE				bne	L263d		; error, ->
  2675 EABE			L264d
  2676 EABE 30 FE				bmi	L264d		; error, ->
  2677
  2678
  2679 EAC0 C9 00				cmp	#0
  2680 EAC2			L265d
  2681 EAC2 D0 FE				bne	L265d		; error, ->
  2682
  2683
  2684 EAC4 A9 71				lda	#$71
  2685 EAC6 85 03				sta	Test
  2686
  2687 EAC8 A9 30				lda	#$30
  2688 EACA A8					tay
  2689 EACB 99 00 10				sta	TmpAB0,Y
  2690
  2691 EACE 38					sec
  2692 EACF F9 00 10				sbc	TmpAB0,Y
  2693 EAD2			L261e
  2694 EAD2 90 FE				bcc	L261e		; error, ->
  2695 EAD4			L262e
  2696 EAD4 70 FE				bvs	L262e		; error, ->
  2697 EAD6			L263e
  2698 EAD6 D0 FE				bne	L263e		; error, ->
  2699 EAD8			L264e
  2700 EAD8 30 FE				bmi	L264e		; error, ->
  2701
  2702
  2703 EADA C9 00				cmp	#0
  2704 EADC			L265e
  2705 EADC D0 FE				bne	L265e		; error, ->
  2706
  2707
  2708 EADE A9 72				lda	#$72
  2709 EAE0 85 03				sta	Test
  2710
  2711 EAE2 A9 10				lda	#$10
  2712 EAE4 85 51				sta	$51
  2713 EAE6 85 21				sta	$21
  2714
  2715 EAE8 A9 AA				lda	#$AA
  2716 EAEA 85 50				sta	$50
  2717 EAEC 85 20				sta	$20
  2718
  2719 EAEE A2 30				ldx	#$30
  2720 EAF0 8A					txa
  2721 EAF1 81 20				sta	($20,X)
  2722
  2723 EAF3 38					sec
  2724 EAF4 E1 20				sbc	($20,X)
  2725 EAF6			L261f
  2726 EAF6 90 FE				bcc	L261f		; error, ->
  2727 EAF8			L262f
  2728 EAF8 70 FE				bvs	L262f		; error, ->
  2729 EAFA			L263f
  2730 EAFA D0 FE				bne	L263f		; error, ->
  2731 EAFC			L264f
  2732 EAFC 30 FE				bmi	L264f		; error, ->
  2733
  2734
  2735 EAFE C9 00				cmp	#0
  2736 EB00			L265f
  2737 EB00 D0 FE				bne	L265f		; error, ->
  2738
  2739
  2740 EB02 A9 73				lda	#$73
  2741 EB04 85 03				sta	Test
  2742
  2743 EB06 A9 30				lda	#$30
  2744 EB08 81 F0				sta	($F0,X)
  2745
  2746 EB0A 38					sec
  2747 EB0B E1 F0				sbc	($F0,X)
  2748 EB0D			L261g
  2749 EB0D 90 FE				bcc	L261g		; error, ->
  2750 EB0F			L262g
  2751 EB0F 70 FE				bvs	L262g		; error, ->
  2752 EB11			L263g
  2753 EB11 D0 FE				bne	L263g		; error, ->
  2754 EB13			L264g
  2755 EB13 30 FE				bmi	L264g		; error, ->
  2756
  2757
  2758 EB15 C9 00				cmp	#0
  2759 EB17			L265g
  2760 EB17 D0 FE				bne	L265g		; error, ->
  2761
  2762
  2763 				;  SEC 		; $30 - $50 = $20, returns C = 0, returns V = 0
  2764 				;  LDA #$30
  2765 				;  SBC #$50
  2766
  2767 EB19 A9 74				lda	#$74
  2768 EB1B 85 03				sta	Test
  2769
  2770 EB1D A9 50				lda	#$50
  2771 EB1F 85 10				sta	TmpZP0
  2772 EB21 8D 00 10				sta	TmpAB0
  2773
  2774 EB24 38					sec
  2775 EB25 A9 30				lda	#$30
  2776 EB27 E9 50				sbc	#$50
  2777 EB29			L271
  2778 EB29 B0 FE				bcs	L271		; error, ->
  2779 EB2B			L272
  2780 EB2B 70 FE				bvs	L272		; error, ->
  2781 EB2D			L273
  2782 EB2D F0 FE				beq	L273		; error, ->
  2783 EB2F			L274
  2784 EB2F 10 FE				bpl	L274		; error, ->
  2785
  2786
  2787 EB31 C9 E0				cmp	#$E0
  2788 EB33			L275
  2789 EB33 D0 FE				bne	L275		; error, ->
  2790
  2791
  2792 EB35 A9 75				lda	#$75
  2793 EB37 85 03				sta	Test
  2794
  2795 EB39 38					sec
  2796 EB3A A9 30				lda	#$30
  2797 EB3C E5 10				sbc	TmpZP0
  2798 EB3E			L271a
  2799 EB3E B0 FE				bcs	L271a		; error, ->
  2800 EB40			L272a
  2801 EB40 70 FE				bvs	L272a		; error, ->
  2802 EB42			L273a
  2803 EB42 F0 FE				beq	L273a		; error, ->
  2804 EB44			L274a
  2805 EB44 10 FE				bpl	L274a		; error, ->
  2806
  2807
  2808 EB46 C9 E0				cmp	#$E0
  2809 EB48			L275a
  2810 EB48 D0 FE				bne	L275a		; error, ->
  2811
  2812 EB4A A9 76				lda	#$76
  2813 EB4C 85 03				sta	Test
  2814
  2815 EB4E 38					sec
  2816 EB4F A9 30				lda	#$30
  2817 EB51 ED 00 10				sbc	TmpAB0
  2818 EB54			L271b
  2819 EB54 B0 FE				bcs	L271b		; error, ->
  2820 EB56			L272b
  2821 EB56 70 FE				bvs	L272b		; error, ->
  2822 EB58			L273b
  2823 EB58 F0 FE				beq	L273b		; error, ->
  2824 EB5A			L274b
  2825 EB5A 10 FE				bpl	L274b		; error, ->
  2826
  2827
  2828 EB5C C9 E0				cmp	#$E0
  2829 EB5E			L275b
  2830 EB5E D0 FE				bne	L275b		; error, ->
  2831
  2832 EB60 A9 77				lda	#$77
  2833 EB62 85 03				sta	Test
  2834
  2835 EB64 A2 30				ldx	#$30
  2836 EB66 A9 50				lda	#$50
  2837 EB68 95 30				sta	$30,X
  2838
  2839 EB6A 38					sec
  2840 EB6B A9 30				lda	#$30
  2841 EB6D F5 30				sbc	$30,X
  2842 EB6F			L271c
  2843 EB6F B0 FE				bcs	L271c		; error, ->
  2844 EB71			L272c
  2845 EB71 70 FE				bvs	L272c		; error, ->
  2846 EB73			L273c
  2847 EB73 F0 FE				beq	L273c		; error, ->
  2848 EB75			L274c
  2849 EB75 10 FE				bpl	L274c		; error, ->
  2850
  2851
  2852 EB77 C9 E0				cmp	#$E0
  2853 EB79			L275c
  2854 EB79 D0 FE				bne	L275c		; error, ->
  2855
  2856 EB7B A9 78				lda	#$78
  2857 EB7D 85 03				sta	Test
  2858
  2859 EB7F A9 50				lda	#$50
  2860 EB81 9D 00 10				sta	TmpAB0,X
  2861
  2862 EB84 38					sec
  2863 EB85 A9 30				lda	#$30
  2864 EB87 FD 00 10				sbc	TmpAB0,X
  2865 EB8A			L271d
  2866 EB8A B0 FE				bcs	L271d		; error, ->
  2867 EB8C			L272d
  2868 EB8C 70 FE				bvs	L272d		; error, ->
  2869 EB8E			L273d
  2870 EB8E F0 FE				beq	L273d		; error, ->
  2871 EB90			L274d
  2872 EB90 10 FE				bpl	L274d		; error, ->
  2873
  2874
  2875 EB92 C9 E0				cmp	#$E0
  2876 EB94			L275d
  2877 EB94 D0 FE				bne	L275d		; error, ->
  2878
  2879 EB96 A9 79				lda	#$79
  2880 EB98 85 03				sta	Test
  2881
  2882 EB9A A0 30				ldy	#$30
  2883 EB9C A9 50				lda	#$50
  2884 EB9E 99 00 10				sta	TmpAB0,Y
  2885
  2886 EBA1 38					sec
  2887 EBA2 A9 30				lda	#$30
  2888 EBA4 F9 00 10				sbc	TmpAB0,Y
  2889 EBA7			L271e
  2890 EBA7 B0 FE				bcs	L271e		; error, ->
  2891 EBA9			L272e
  2892 EBA9 70 FE				bvs	L272e		; error, ->
  2893 EBAB			L273e
  2894 EBAB F0 FE				beq	L273e		; error, ->
  2895 EBAD			L274e
  2896 EBAD 10 FE				bpl	L274e		; error, ->
  2897
  2898
  2899 EBAF C9 E0				cmp	#$E0
  2900 EBB1			L275e
  2901 EBB1 D0 FE				bne	L275e		; error, ->
  2902
  2903
  2904 EBB3 A9 7A				lda	#$7A
  2905 EBB5 85 03				sta	Test
  2906
  2907 EBB7 A9 10				lda	#$10
  2908 EBB9 85 51				sta	$51
  2909 EBBB 85 21				sta	$21
  2910
  2911 EBBD A9 AA				lda	#$AA
  2912 EBBF 85 50				sta	$50
  2913 EBC1 85 20				sta	$20
  2914
  2915 EBC3 A9 50				lda	#$50
  2916 EBC5 81 20				sta	($20,X)
  2917
  2918 EBC7 38					sec
  2919 EBC8 A9 30				lda	#$30
  2920 EBCA E1 20				sbc	($20,X)
  2921 EBCC			L271f
  2922 EBCC B0 FE				bcs	L271f		; error, ->
  2923 EBCE			L272f
  2924 EBCE 70 FE				bvs	L272f		; error, ->
  2925 EBD0			L273f
  2926 EBD0 F0 FE				beq	L273f		; error, ->
  2927 EBD2			L274f
  2928 EBD2 10 FE				bpl	L274f		; error, ->
  2929
  2930
  2931 EBD4 C9 E0				cmp	#$E0
  2932 EBD6			L275f
  2933 EBD6 D0 FE				bne	L275f		; error, ->
  2934
  2935
  2936 EBD8 A9 7B				lda	#$7B
  2937 EBDA 85 03				sta	Test
  2938
  2939 EBDC A9 50				lda	#$50
  2940 EBDE 81 F0				sta	($F0,X)
  2941
  2942 EBE0 38					sec
  2943 EBE1 A9 30				lda	#$30
  2944 EBE3 E1 F0				sbc	($F0,X)
  2945 EBE5			L271g
  2946 EBE5 B0 FE				bcs	L271g		; error, ->
  2947 EBE7			L272g
  2948 EBE7 70 FE				bvs	L272g		; error, ->
  2949 EBE9			L273g
  2950 EBE9 F0 FE				beq	L273g		; error, ->
  2951 EBEB			L274g
  2952 EBEB 10 FE				bpl	L274g		; error, ->
  2953
  2954
  2955 EBED C9 E0				cmp	#$E0
  2956 EBEF			L275g
  2957 EBEF D0 FE				bne	L275g		; error, ->
  2958
  2959
  2960 				;  SEC 		; $80 - $01 = $7F, returns C = 1, returns V = 1
  2961 				;  LDA #$80
  2962 				;  SBC #$01
  2963
  2964 EBF1 A9 7C				lda	#$7C
  2965 EBF3 85 03				sta	Test
  2966
  2967 EBF5 A9 01				lda	#1
  2968 EBF7 85 10				sta	TmpZP0
  2969 EBF9 8D 00 10				sta	TmpAB0
  2970
  2971 EBFC 38					sec
  2972 EBFD A9 80				lda	#$80
  2973 EBFF E9 01				sbc	#1
  2974 EC01			L281
  2975 EC01 90 FE				bcc	L281		; error, ->
  2976 EC03			L282
  2977 EC03 50 FE				bvc	L282		; error, ->
  2978 EC05			L283
  2979 EC05 F0 FE				beq	L283		; error, ->
  2980 EC07			L284
  2981 EC07 30 FE				bmi	L284		; error, ->
  2982
  2983
  2984 EC09 C9 7F				cmp	#$7F
  2985 EC0B			L285
  2986 EC0B D0 FE				bne	L285		; error, ->
  2987
  2988
  2989 EC0D A9 7D				lda	#$7D
  2990 EC0F 85 03				sta	Test
  2991
  2992 EC11 38					sec
  2993 EC12 A9 80				lda	#$80
  2994 EC14 E5 10				sbc	TmpZP0
  2995 EC16			L281a
  2996 EC16 90 FE				bcc	L281a		; error, ->
  2997 EC18			L282a
  2998 EC18 50 FE				bvc	L282a		; error, ->
  2999 EC1A			L283a
  3000 EC1A F0 FE				beq	L283a		; error, ->
  3001 EC1C			L284a
  3002 EC1C 30 FE				bmi	L284a		; error, ->
  3003
  3004
  3005 EC1E C9 7F				cmp	#$7F
  3006 EC20			L285a
  3007 EC20 D0 FE				bne	L285a		; error, ->
  3008
  3009
  3010 EC22 A9 7E				lda	#$7E
  3011 EC24 85 03				sta	Test
  3012
  3013 EC26 38					sec
  3014 EC27 A9 80				lda	#$80
  3015 EC29 ED 00 10				sbc	TmpAB0
  3016 EC2C			L281b
  3017 EC2C 90 FE				bcc	L281b		; error, ->
  3018 EC2E			L282b
  3019 EC2E 50 FE				bvc	L282b		; error, ->
  3020 EC30			L283b
  3021 EC30 F0 FE				beq	L283b		; error, ->
  3022 EC32			L284b
  3023 EC32 30 FE				bmi	L284b		; error, ->
  3024
  3025
  3026 EC34 C9 7F				cmp	#$7F
  3027 EC36			L285b
  3028 EC36 D0 FE				bne	L285b		; error, ->
  3029
  3030
  3031 EC38 A9 7F				lda	#$7F
  3032 EC3A 85 03				sta	Test
  3033
  3034 EC3C A2 30				ldx	#$30
  3035 EC3E A9 01				lda	#1
  3036 EC40 95 30				sta	$30,X
  3037
  3038 EC42 38					sec
  3039 EC43 A9 80				lda	#$80
  3040 EC45 F5 30				sbc	$30,X
  3041 EC47			L281c
  3042 EC47 90 FE				bcc	L281c		; error, ->
  3043 EC49			L282c
  3044 EC49 50 FE				bvc	L282c		; error, ->
  3045 EC4B			L283c
  3046 EC4B F0 FE				beq	L283c		; error, ->
  3047 EC4D			L284c
  3048 EC4D 30 FE				bmi	L284c		; error, ->
  3049
  3050
  3051 EC4F C9 7F				cmp	#$7F
  3052 EC51			L285c
  3053 EC51 D0 FE				bne	L285c		; error, ->
  3054
  3055
  3056 EC53 A9 80				lda	#$80
  3057 EC55 85 03				sta	Test
  3058
  3059 EC57 A9 01				lda	#1
  3060 EC59 9D 00 10				sta	TmpAB0,X
  3061
  3062 EC5C 38					sec
  3063 EC5D A9 80				lda	#$80
  3064 EC5F FD 00 10				sbc	TmpAB0,X
  3065 EC62			L281d
  3066 EC62 90 FE				bcc	L281d		; error, ->
  3067 EC64			L282d
  3068 EC64 50 FE				bvc	L282d		; error, ->
  3069 EC66			L283d
  3070 EC66 F0 FE				beq	L283d		; error, ->
  3071 EC68			L284d
  3072 EC68 30 FE				bmi	L284d		; error, ->
  3073
  3074
  3075 EC6A C9 7F				cmp	#$7F
  3076 EC6C			L285d
  3077 EC6C D0 FE				bne	L285d		; error, ->
  3078
  3079
  3080 EC6E A9 81				lda	#$81
  3081 EC70 85 03				sta	Test
  3082
  3083 EC72 A0 30				ldy	#$30
  3084 EC74 A9 01				lda	#1
  3085 EC76 99 00 10				sta	TmpAB0,Y
  3086
  3087 EC79 38					sec
  3088 EC7A A9 80				lda	#$80
  3089 EC7C F9 00 10				sbc	TmpAB0,Y
  3090 EC7F			L281e
  3091 EC7F 90 FE				bcc	L281e		; error, ->
  3092 EC81			L282e
  3093 EC81 50 FE				bvc	L282e		; error, ->
  3094 EC83			L283e
  3095 EC83 F0 FE				beq	L283e		; error, ->
  3096 EC85			L284e
  3097 EC85 30 FE				bmi	L284e		; error, ->
  3098
  3099
  3100 EC87 C9 7F				cmp	#$7F
  3101 EC89			L285e
  3102 EC89 D0 FE				bne	L285e		; error, ->
  3103
  3104
  3105 EC8B A9 82				lda	#$82
  3106 EC8D 85 03				sta	Test
  3107
  3108 EC8F A9 10				lda	#$10
  3109 EC91 85 51				sta	$51
  3110 EC93 85 21				sta	$21
  3111
  3112 EC95 A9 AA				lda	#$AA
  3113 EC97 85 50				sta	$50
  3114 EC99 85 20				sta	$20
  3115
  3116 EC9B A9 01				lda	#1
  3117 EC9D 81 20				sta	($20,X)
  3118
  3119 EC9F 38					sec
  3120 ECA0 A9 80				lda	#$80
  3121 ECA2 E1 20				sbc	($20,X)
  3122 ECA4			L281f
  3123 ECA4 90 FE				bcc	L281f		; error, ->
  3124 ECA6			L282f
  3125 ECA6 50 FE				bvc	L282f		; error, ->
  3126 ECA8			L283f
  3127 ECA8 F0 FE				beq	L283f		; error, ->
  3128 ECAA			L284f
  3129 ECAA 30 FE				bmi	L284f		; error, ->
  3130
  3131
  3132 ECAC C9 7F				cmp	#$7F
  3133 ECAE			L285f
  3134 ECAE D0 FE				bne	L285f		; error, ->
  3135
  3136
  3137 ECB0 A9 83				lda	#$83
  3138 ECB2 85 03				sta	Test
  3139
  3140 ECB4 A9 01				lda	#1
  3141 ECB6 81 F0				sta	($F0,X)
  3142
  3143 ECB8 38					sec
  3144 ECB9 A9 80				lda	#$80
  3145 ECBB E1 F0				sbc	($F0,X)
  3146 ECBD			L281g
  3147 ECBD 90 FE				bcc	L281g		; error, ->
  3148 ECBF			L282g
  3149 ECBF 50 FE				bvc	L282g		; error, ->
  3150 ECC1			L283g
  3151 ECC1 F0 FE				beq	L283g		; error, ->
  3152 ECC3			L284g
  3153 ECC3 30 FE				bmi	L284g		; error, ->
  3154
  3155
  3156 ECC5 C9 7F				cmp	#$7F
  3157 ECC7			L285g
  3158 ECC7 D0 FE				bne	L285g		; error, ->
  3159
  3160
  3161 				;  SEC 		; $70 - $E0 = $90, returns C = 0, returns V = 1
  3162 				;  LDA #$70
  3163 				;  SBC #$E0
  3164
  3165 ECC9 A9 84				lda	#$84
  3166 ECCB 85 03				sta	Test
  3167
  3168 ECCD A9 E0				lda	#$E0
  3169 ECCF 85 10				sta	TmpZP0
  3170 ECD1 8D 00 10				sta	TmpAB0
  3171
  3172 ECD4 38					sec
  3173 ECD5 A9 70				lda	#$70
  3174 ECD7 E9 E0				sbc	#$E0
  3175 ECD9			L291
  3176 ECD9 B0 FE				bcs	L291		; error, ->
  3177 ECDB			L292
  3178 ECDB 50 FE				bvc	L292		; error, ->
  3179 ECDD			L293
  3180 ECDD F0 FE				beq	L293		; error, ->
  3181 ECDF			L294
  3182 ECDF 10 FE				bpl	L294		; error, ->
  3183
  3184
  3185 ECE1 C9 90				cmp	#$90
  3186 ECE3			L295
  3187 ECE3 D0 FE				bne	L295		; error, ->
  3188
  3189
  3190 ECE5 A9 85				lda	#$85
  3191 ECE7 85 03				sta	Test
  3192
  3193 ECE9 38					sec
  3194 ECEA A9 70				lda	#$70
  3195 ECEC E5 10				sbc	TmpZP0
  3196 ECEE			L291a
  3197 ECEE B0 FE				bcs	L291a		; error, ->
  3198 ECF0			L292a
  3199 ECF0 50 FE				bvc	L292a		; error, ->
  3200 ECF2			L293a
  3201 ECF2 F0 FE				beq	L293a		; error, ->
  3202 ECF4			L294a
  3203 ECF4 10 FE				bpl	L294a		; error, ->
  3204
  3205
  3206 ECF6 C9 90				cmp	#$90
  3207 ECF8			L295a
  3208 ECF8 D0 FE				bne	L295a		; error, ->
  3209
  3210
  3211 ECFA A9 86				lda	#$86
  3212 ECFC 85 03				sta	Test
  3213
  3214 ECFE 38					sec
  3215 ECFF A9 70				lda	#$70
  3216 ED01 ED 00 10				sbc	TmpAB0
  3217 ED04			L291b
  3218 ED04 B0 FE				bcs	L291b		; error, ->
  3219 ED06			L292b
  3220 ED06 50 FE				bvc	L292b		; error, ->
  3221 ED08			L293b
  3222 ED08 F0 FE				beq	L293b		; error, ->
  3223 ED0A			L294b
  3224 ED0A 10 FE				bpl	L294b		; error, ->
  3225
  3226
  3227 ED0C C9 90				cmp	#$90
  3228 ED0E			L295b
  3229 ED0E D0 FE				bne	L295b		; error, ->
  3230
  3231
  3232 ED10 A9 87				lda	#$87
  3233 ED12 85 03				sta	Test
  3234
  3235 ED14 A2 70				ldx	#$70
  3236 ED16 A9 E0				lda	#$E0
  3237 ED18 95 30				sta	$30,X
  3238
  3239 ED1A 38					sec
  3240 ED1B A9 70				lda	#$70
  3241 ED1D F5 30				sbc	$30,X
  3242 ED1F			L291c
  3243 ED1F B0 FE				bcs	L291c		; error, ->
  3244 ED21			L292c
  3245 ED21 50 FE				bvc	L292c		; error, ->
  3246 ED23			L293c
  3247 ED23 F0 FE				beq	L293c		; error, ->
  3248 ED25			L294c
  3249 ED25 10 FE				bpl	L294c		; error, ->
  3250
  3251
  3252 ED27 C9 90				cmp	#$90
  3253 ED29			L295c
  3254 ED29 D0 FE				bne	L295c		; error, ->
  3255
  3256
  3257 ED2B A9 88				lda	#$88
  3258 ED2D 85 03				sta	Test
  3259
  3260 ED2F A9 E0				lda	#$E0
  3261 ED31 9D 00 10				sta	TmpAB0,X
  3262
  3263 ED34 38					sec
  3264 ED35 A9 70				lda	#$70
  3265 ED37 FD 00 10				sbc	TmpAB0,X
  3266 ED3A			L291d
  3267 ED3A B0 FE				bcs	L291d		; error, ->
  3268 ED3C			L292d
  3269 ED3C 50 FE				bvc	L292d		; error, ->
  3270 ED3E			L293d
  3271 ED3E F0 FE				beq	L293d		; error, ->
  3272 ED40			L294d
  3273 ED40 10 FE				bpl	L294d		; error, ->
  3274
  3275
  3276 ED42 C9 90				cmp	#$90
  3277 ED44			L295d
  3278 ED44 D0 FE				bne	L295d		; error, ->
  3279
  3280
  3281 ED46 A9 89				lda	#$89
  3282 ED48 85 03				sta	Test
  3283
  3284 ED4A A0 70				ldy	#$70
  3285 ED4C A9 E0				lda	#$E0
  3286 ED4E 99 00 10				sta	TmpAB0,Y
  3287
  3288 ED51 38					sec
  3289 ED52 A9 70				lda	#$70
  3290 ED54 F9 00 10				sbc	TmpAB0,Y
  3291 ED57			L291e
  3292 ED57 B0 FE				bcs	L291e		; error, ->
  3293 ED59			L292e
  3294 ED59 50 FE				bvc	L292e		; error, ->
  3295 ED5B			L293e
  3296 ED5B F0 FE				beq	L293e		; error, ->
  3297 ED5D			L294e
  3298 ED5D 10 FE				bpl	L294e		; error, ->
  3299
  3300
  3301 ED5F C9 90				cmp	#$90
  3302 ED61			L295e
  3303 ED61 D0 FE				bne	L295e		; error, ->
  3304
  3305
  3306 ED63 A9 8A				lda	#$8A
  3307 ED65 85 03				sta	Test
  3308
  3309 ED67 A9 10				lda	#$10
  3310 ED69 85 51				sta	$51
  3311 ED6B 85 21				sta	$21
  3312
  3313 ED6D A9 AA				lda	#$AA
  3314 ED6F 85 50				sta	$50
  3315 ED71 85 20				sta	$20
  3316
  3317 ED73 A9 E0				lda	#$E0
  3318 ED75 81 20				sta	($20,X)
  3319
  3320 ED77 38					sec
  3321 ED78 A9 70				lda	#$70
  3322 ED7A E1 20				sbc	($20,X)
  3323 ED7C			L291f
  3324 ED7C B0 FE				bcs	L291f		; error, ->
  3325 ED7E			L292f
  3326 ED7E 50 FE				bvc	L292f		; error, ->
  3327 ED80			L293f
  3328 ED80 F0 FE				beq	L293f		; error, ->
  3329 ED82			L294f
  3330 ED82 10 FE				bpl	L294f		; error, ->
  3331
  3332
  3333 ED84 C9 90				cmp	#$90
  3334 ED86			L295f
  3335 ED86 D0 FE				bne	L295f		; error, ->
  3336
  3337
  3338 ED88 A9 8B				lda	#$8B
  3339 ED8A 85 03				sta	Test
  3340
  3341 ED8C A9 E0				lda	#$E0
  3342 ED8E 81 F0				sta	($F0,X)
  3343
  3344 ED90 38					sec
  3345 ED91 A9 70				lda	#$70
  3346 ED93 E1 F0				sbc	($F0,X)
  3347 ED95			L291g
  3348 ED95 B0 FE				bcs	L291g		; error, ->
  3349 ED97			L292g
  3350 ED97 50 FE				bvc	L292g		; error, ->
  3351 ED99			L293g
  3352 ED99 F0 FE				beq	L293g		; error, ->
  3353 ED9B			L294g
  3354 ED9B 10 FE				bpl	L294g		; error, ->
  3355
  3356
  3357 ED9D C9 90				cmp	#$90
  3358 ED9F			L295g
  3359 ED9F D0 FE				bne	L295g		; error, ->
  3360
  3361
  3362 				;**  ADC  (2)             	Test ADC in combination with SEC
  3363 EDA1 A9 8C				lda	#$8C
  3364 EDA3 85 03				sta	Test
  3365
  3366 EDA5 38					sec
  3367 EDA6 A9 01				lda	#1
  3368 EDA8 69 04				adc	#4
  3369 EDAA			L301
  3370 EDAA B0 FE				bcs	L301		; Carry must have been cleared
  3371
  3372 EDAC C9 06				cmp	#6
  3373 EDAE			L302
  3374 EDAE D0 FE				bne	L302
  3375
  3376 EDB0 A9 8D				lda	#$8D
  3377 EDB2 85 03				sta	Test
  3378
  3379 EDB4 38					sec
  3380 EDB5 A9 7F				lda	#$7F
  3381 EDB7 69 80				adc	#$80
  3382 EDB9			L303
  3383 EDB9 D0 FE				bne	L303
  3384 EDBB			L304
  3385 EDBB 90 F1				bcc	L302		; Carry still must be set
  3386
  3387 				;**  SBC  (2)             	Test SBC in combination with CLC
  3388 EDBD A9 8E				lda	#$8E
  3389 EDBF 85 03				sta	Test
  3390
  3391 EDC1 18					clc
  3392 EDC2 A9 06				lda	#6
  3393 EDC4 E9 04				sbc	#4
  3394 EDC6			L311
  3395 EDC6 90 FE				bcc	L311		; Carry must have been set
  3396
  3397 EDC8 C9 01				cmp	#1
  3398 EDCA			L312
  3399 EDCA D0 FE				bne	L312
  3400
  3401 EDCC A9 8F				lda	#$8F
  3402 EDCE 85 03				sta	Test
  3403
  3404 EDD0 38					sec
  3405 EDD1 A9 7F				lda	#$7F
  3406 EDD3 69 7F				adc	#$7F
  3407 EDD5			L313
  3408 EDD5 B0 FE				bcs	L313		; Carry still must be cleared
  3409
  3410 EDD7 C9 FF				cmp	#$FF
  3411 EDD9			L314
  3412 EDD9 D0 FE				bne	L314
  3413
  3414 EDDB A9 9F				lda	#$9F
  3415 EDDD 85 03				sta	Test
  3416
  3417 EDDF 38					sec
  3418 EDE0 A9 7F				lda	#$7F
  3419 EDE2 69 80				adc	#$80
  3420 EDE4			L315
  3421 EDE4 90 EF				bcc	L313		; Carry still must be set
  3422 EDE6			L316
  3423 EDE6 D0 FE				bne	L316
  3424
  3425
  3426 				;**  AND
  3427 EDE8 A9 A0				lda	#$A0
  3428 EDEA 85 03				sta	Test
  3429
  3430 EDEC A2 05				ldx	#5
  3431 EDEE A0 09				ldy	#9
  3432
  3433 EDF0 A9 10				lda	#$10
  3434 EDF2 85 15				sta	TmpZP0+5
  3435 EDF4 85 16				sta	TmpZP0+6
  3436
  3437 EDF6 A9 00				lda	#0
  3438 EDF8 85 14				sta	TmpZP0+4
  3439 EDFA 8D 10 10				sta	TmpAB0+$10
  3440 EDFD 8D 09 10				sta	TmpAB0+9
  3441
  3442 EE00 A9 AA				lda	#$AA
  3443 EE02 81 10				sta	(TmpZP0,X)		; = ($15) = $1010
  3444 EE04 91 14				sta	(TmpZP0+4),Y		; = $1000 + 9
  3445
  3446 EE06 CD 10 10				cmp	TmpAB0+$10
  3447 EE09			L320a
  3448 EE09 D0 FE				bne	L320a
  3449
  3450 EE0B CD 09 10				cmp	TmpAB0+9
  3451
  3452 EE0E D0 FE		L320b		bne	L320b
  3453
  3454
  3455 				;* A = $FF, memory = 0
  3456 EE10 A9 A1				lda	#$A1
  3457 EE12 85 03				sta	Test
  3458
  3459 EE14 A9 00				lda	#0
  3460 EE16 85 10				sta	TmpZP0
  3461 EE18 8D 00 10				sta	TmpAB0
  3462 EE1B 95 10				sta	TmpZP0,X
  3463 EE1D 9D 00 10				sta	TmpAB0,X
  3464 EE20 99 00 10				sta	TmpAB0,Y
  3465 EE23 81 10				sta	(TmpZP0,X)
  3466 EE25 91 14				sta	(TmpZP0+4),Y
  3467
  3468 EE27 A9 FF				lda	#$FF
  3469 EE29 29 00				and	#$0
  3470 EE2B			L321
  3471 EE2B D0 FE				bne	L321		; error, ->
  3472 EE2D			L322
  3473 EE2D 30 FE				bmi	L322		; error, ->
  3474
  3475 EE2F A9 A2				lda	#$A2
  3476 EE31 85 03				sta	Test
  3477
  3478 EE33 A9 FF				lda	#$FF
  3479 EE35 25 10				and	TmpZP0
  3480 EE37			L331
  3481 EE37 D0 FE				bne	L331		; error, ->
  3482 EE39			L332
  3483 EE39 30 FE				bmi	L332		; error, ->
  3484
  3485 EE3B A9 A3				lda	#$A3
  3486 EE3D 85 03				sta	Test
  3487
  3488 EE3F A9 FF				lda	#$FF
  3489 EE41 2D 00 10				and	TmpAB0
  3490 EE44			L341
  3491 EE44 D0 FE				bne	L341		; error, ->
  3492 EE46			L342
  3493 EE46 30 FE				bmi	L342		; error, ->
  3494
  3495 EE48 A9 A4				lda	#$A4
  3496 EE4A 85 03				sta	Test
  3497
  3498 EE4C A9 FF				lda	#$FF
  3499 EE4E 35 10				and	TmpZP0,X
  3500 EE50			L351
  3501 EE50 D0 FE				bne	L351		; error, ->
  3502 EE52			L352
  3503 EE52 30 FE				bmi	L352		; error, ->
  3504
  3505 EE54 A9 A5				lda	#$A5
  3506 EE56 85 03				sta	Test
  3507
  3508 EE58 A9 FF				lda	#$FF
  3509 EE5A 3D 00 10				and	TmpAB0,X
  3510 EE5D			L361
  3511 EE5D D0 FE				bne	L361		; error, ->
  3512 EE5F			L362
  3513 EE5F 30 FE				bmi	L362		; error, ->
  3514
  3515 EE61 A9 A6				lda	#$A6
  3516 EE63 85 03				sta	Test
  3517
  3518 EE65 A9 FF				lda	#$FF
  3519 EE67 39 00 10				and	TmpAB0,Y
  3520 EE6A			L371
  3521 EE6A D0 FE				bne	L371		; error, ->
  3522 EE6C			L372
  3523 EE6C 30 FE				bmi	L372		; error, ->
  3524
  3525 EE6E A9 A7				lda	#$A7
  3526 EE70 85 03				sta	Test
  3527
  3528 EE72 A9 FF				lda	#$FF
  3529 EE74 21 10				and	(TmpZP0,X)
  3530 EE76			L381
  3531 EE76 D0 FE				bne	L381		; error, ->
  3532 EE78			L382
  3533 EE78 30 FE				bmi	L382		; error, ->
  3534
  3535 EE7A A9 A8				lda	#$A8
  3536 EE7C 85 03				sta	Test
  3537
  3538 EE7E A9 FF				lda	#$FF
  3539 EE80 31 14				and	(TmpZP0+4),Y
  3540 EE82			L391
  3541 EE82 D0 FE				bne	L391		; error, ->
  3542 EE84			L392
  3543 EE84 30 FE				bmi	L392		; error, ->
  3544
  3545 				;* A = 0, memory = $FF
  3546 EE86 A9 A9				lda	#$A9
  3547 EE88 85 03				sta	Test
  3548
  3549 EE8A A9 FF				lda	#$FF
  3550 EE8C 85 10				sta	TmpZP0
  3551 EE8E 8D 00 10				sta	TmpAB0
  3552 EE91 95 10				sta	TmpZP0,X
  3553 EE93 9D 00 10				sta	TmpAB0,X
  3554 EE96 99 00 10				sta	TmpAB0,Y
  3555 EE99 81 10				sta	(TmpZP0,X)
  3556 EE9B 91 14				sta	(TmpZP0+4),Y
  3557
  3558 EE9D A9 00				lda	#0
  3559 EE9F 29 FF				and	#$FF
  3560 EEA1			L421
  3561 EEA1 D0 FE				bne	L421		; error, ->
  3562 EEA3			L422
  3563 EEA3 30 FE				bmi	L422		; error, ->
  3564
  3565 EEA5 A9 AA				lda	#$AA
  3566 EEA7 85 03				sta	Test
  3567
  3568 EEA9 A9 00				lda	#0
  3569 EEAB 25 10				and	TmpZP0
  3570 EEAD			L431
  3571 EEAD D0 FE				bne	L431		; error, ->
  3572 EEAF			L432
  3573 EEAF 30 FE				bmi	L432		; error, ->
  3574
  3575 EEB1 A9 AB				lda	#$AB
  3576 EEB3 85 03				sta	Test
  3577
  3578 EEB5 A9 00				lda	#0
  3579 EEB7 2D 00 10				and	TmpAB0
  3580 EEBA			L441
  3581 EEBA D0 FE				bne	L441		; error, ->
  3582 EEBC			L442
  3583 EEBC 30 FE				bmi	L442		; error, ->
  3584
  3585 EEBE A9 AC				lda	#$AC
  3586 EEC0 85 03				sta	Test
  3587
  3588 EEC2 A9 00				lda	#0
  3589 EEC4 35 10				and	TmpZP0,X
  3590 EEC6			L451
  3591 EEC6 D0 FE				bne	L451		; error, ->
  3592 EEC8			L452
  3593 EEC8 30 FE				bmi	L452		; error, ->
  3594
  3595 EECA A9 AD				lda	#$AD
  3596 EECC 85 03				sta	Test
  3597
  3598 EECE A9 00				lda	#0
  3599 EED0 3D 00 10				and	TmpAB0,X
  3600 EED3			L461
  3601 EED3 D0 FE				bne	L461		; error, ->
  3602 EED5			L462
  3603 EED5 30 FE				bmi	L462		; error, ->
  3604
  3605 EED7 A9 AE				lda	#$AE
  3606 EED9 85 03				sta	Test
  3607
  3608 EEDB A9 00				lda	#0
  3609 EEDD 39 00 10				and	TmpAB0,Y
  3610 EEE0			L471
  3611 EEE0 D0 FE				bne	L471		; error, ->
  3612 EEE2			L472
  3613 EEE2 30 FE				bmi	L472		; error, ->
  3614
  3615 EEE4 A9 AF				lda	#$AF
  3616 EEE6 85 03				sta	Test
  3617
  3618 EEE8 A9 00				lda	#0
  3619 EEEA 21 10				and	(TmpZP0,X)
  3620 EEEC			L481
  3621 EEEC D0 FE				bne	L481		; error, ->
  3622 EEEE			L482
  3623 EEEE 30 FE				bmi	L482		; error, ->
  3624
  3625 EEF0 A9 B0				lda	#$B0
  3626 EEF2 85 03				sta	Test
  3627
  3628 EEF4 A9 00				lda	#0
  3629 EEF6 31 14				and	(TmpZP0+4),Y
  3630 EEF8			L491
  3631 EEF8 D0 FE				bne	L491		; error, ->
  3632 EEFA			L492
  3633 EEFA 30 FE				bmi	L492		; error, ->
  3634
  3635 				;* A = $AA, memory = $55
  3636 EEFC A9 B1				lda	#$B1
  3637 EEFE 85 03				sta	Test
  3638
  3639 EF00 A9 55				lda	#$55
  3640 EF02 85 10				sta	TmpZP0
  3641 EF04 8D 00 10				sta	TmpAB0
  3642 EF07 95 10				sta	TmpZP0,X
  3643 EF09 9D 00 10				sta	TmpAB0,X
  3644 EF0C 99 00 10				sta	TmpAB0,Y
  3645 EF0F 81 10				sta	(TmpZP0,X)
  3646 EF11 91 14				sta	(TmpZP0+4),Y
  3647
  3648 EF13 A9 AA				lda	#$AA
  3649 EF15 29 55				and	#$55
  3650 EF17			L521
  3651 EF17 D0 FE				bne	L521		; error, ->
  3652 EF19			L522
  3653 EF19 30 FE				bmi	L522		; error, ->
  3654
  3655 EF1B A9 B2				lda	#$B2
  3656 EF1D 85 03				sta	Test
  3657
  3658 EF1F A9 AA				lda	#$AA
  3659 EF21 25 10				and	TmpZP0
  3660 EF23			L531
  3661 EF23 D0 FE				bne	L531		; error, ->
  3662 EF25			L532
  3663 EF25 30 FE				bmi	L532		; error, ->
  3664
  3665 EF27 A9 B3				lda	#$B3
  3666 EF29 85 03				sta	Test
  3667
  3668 EF2B A9 AA				lda	#$AA
  3669 EF2D 2D 00 10				and	TmpAB0
  3670 EF30			L541
  3671 EF30 D0 FE				bne	L541		; error, ->
  3672 EF32			L542
  3673 EF32 30 FE				bmi	L542		; error, ->
  3674
  3675 EF34 A9 B4				lda	#$B4
  3676 EF36 85 03				sta	Test
  3677
  3678 EF38 A9 AA				lda	#$AA
  3679 EF3A 35 10				and	TmpZP0,X
  3680 EF3C			L551
  3681 EF3C D0 FE				bne	L551		; error, ->
  3682 EF3E			L552
  3683 EF3E 30 FE				bmi	L552		; error, ->
  3684
  3685 EF40 A9 B5				lda	#$B5
  3686 EF42 85 03				sta	Test
  3687
  3688 EF44 A9 AA				lda	#$AA
  3689 EF46 3D 00 10				and	TmpAB0,X
  3690 EF49			L561
  3691 EF49 D0 FE				bne	L561		; error, ->
  3692 EF4B			L562
  3693 EF4B 30 FE				bmi	L562		; error, ->
  3694
  3695 EF4D A9 B6				lda	#$B6
  3696 EF4F 85 03				sta	Test
  3697
  3698 EF51 A9 AA				lda	#$AA
  3699 EF53 39 00 10				and	TmpAB0,Y
  3700 EF56			L571
  3701 EF56 D0 FE				bne	L571		; error, ->
  3702 EF58			L572
  3703 EF58 30 FE				bmi	L572		; error, ->
  3704
  3705 EF5A A9 B7				lda	#$B7
  3706 EF5C 85 03				sta	Test
  3707
  3708 EF5E A9 AA				lda	#$AA
  3709 EF60 21 10				and	(TmpZP0,X)
  3710 EF62			L581
  3711 EF62 D0 FE				bne	L581		; error, ->
  3712 EF64			L582
  3713 EF64 30 FE				bmi	L582		; error, ->
  3714
  3715 EF66 A9 B8				lda	#$B8
  3716 EF68 85 03				sta	Test
  3717
  3718 EF6A A9 AA				lda	#$AA
  3719 EF6C 31 14				and	(TmpZP0+4),Y
  3720 EF6E			L591
  3721 EF6E D0 FE				bne	L591		; error, ->
  3722 EF70			L592
  3723 EF70 30 FE				bmi	L592		; error, ->
  3724
  3725 				;* A = $FF, memory = $FF
  3726 EF72 A9 B9				lda	#$B9
  3727 EF74 85 03				sta	Test
  3728
  3729 EF76 A9 FF				lda	#$FF
  3730 EF78 85 10				sta	TmpZP0
  3731 EF7A 8D 00 10				sta	TmpAB0
  3732 EF7D 95 10				sta	TmpZP0,X
  3733 EF7F 9D 00 10				sta	TmpAB0,X
  3734 EF82 99 00 10				sta	TmpAB0,Y
  3735 EF85 81 10				sta	(TmpZP0,X)
  3736 EF87 91 14				sta	(TmpZP0+4),Y
  3737
  3738 EF89 A9 FF				lda	#$FF
  3739 EF8B 29 FF				and	#$FF
  3740 EF8D			L622
  3741 EF8D 10 FE				bpl	L622		; error, ->
  3742
  3743 EF8F C9 FF				cmp	#$FF
  3744 EF91			L621
  3745 EF91 D0 FE				bne	L621		; error, ->
  3746
  3747 EF93 A9 BA				lda	#$BA
  3748 EF95 85 03				sta	Test
  3749
  3750 EF97 A9 FF				lda	#$FF
  3751 EF99 25 10				and	TmpZP0
  3752 EF9B			L632
  3753 EF9B 10 FE				bpl	L632		; error, ->
  3754
  3755 EF9D C9 FF				cmp	#$FF
  3756 EF9F			L631
  3757 EF9F D0 FE				bne	L631		; error, ->
  3758
  3759 EFA1 A9 BB				lda	#$BB
  3760 EFA3 85 03				sta	Test
  3761
  3762 EFA5 A9 FF				lda	#$FF
  3763 EFA7 2D 00 10				and	TmpAB0
  3764 EFAA			L642
  3765 EFAA 10 FE				bpl	L642		; error, ->
  3766
  3767 EFAC C9 FF				cmp	#$FF
  3768 EFAE			L641
  3769 EFAE D0 FE				bne	L641		; error, ->
  3770
  3771 EFB0 A9 BC				lda	#$BC
  3772 EFB2 85 03				sta	Test
  3773
  3774 EFB4 A9 FF				lda	#$FF
  3775 EFB6 35 10				and	TmpZP0,X
  3776 EFB8			L652
  3777 EFB8 10 FE				bpl	L652		; error, ->
  3778
  3779 EFBA C9 FF				cmp	#$FF
  3780 EFBC			L651
  3781 EFBC D0 FE				bne	L651		; error, ->
  3782
  3783 EFBE A9 BD				lda	#$BD
  3784 EFC0 85 03				sta	Test
  3785
  3786 EFC2 A9 FF				lda	#$FF
  3787 EFC4 3D 00 10				and	TmpAB0,X
  3788 EFC7			L662
  3789 EFC7 10 FE				bpl	L662		; error, ->
  3790
  3791 EFC9 C9 FF				cmp	#$FF
  3792 EFCB			L661
  3793 EFCB D0 FE				bne	L661		; error, ->
  3794
  3795 EFCD A9 BE				lda	#$BE
  3796 EFCF 85 03				sta	Test
  3797
  3798 EFD1 A9 FF				lda	#$FF
  3799 EFD3 39 00 10				and	TmpAB0,Y
  3800 EFD6			L672
  3801 EFD6 10 FE				bpl	L672		; error, ->
  3802
  3803 EFD8 C9 FF				cmp	#$FF
  3804 EFDA			L671
  3805 EFDA D0 FE				bne	L671		; error, ->
  3806
  3807 EFDC A9 BF				lda	#$BF
  3808 EFDE 85 03				sta	Test
  3809
  3810 EFE0 A9 FF				lda	#$FF
  3811 EFE2 21 10				and	(TmpZP0,X)
  3812 EFE4			L682
  3813 EFE4 10 FE				bpl	L682		; error, ->
  3814
  3815 EFE6 C9 FF				cmp	#$FF
  3816 EFE8			L681
  3817 EFE8 D0 FE				bne	L681		; error, ->
  3818
  3819 EFEA A9 C0				lda	#$C0
  3820 EFEC 85 03				sta	Test
  3821
  3822 EFEE A9 FF				lda	#$FF
  3823 EFF0 31 14				and	(TmpZP0+4),Y
  3824 EFF2			L692
  3825 EFF2 10 FE				bpl	L692		; error, ->
  3826
  3827 EFF4 C9 FF				cmp	#$FF
  3828 EFF6			L691
  3829 EFF6 D0 FE				bne	L691		; error, ->
  3830
  3831
  3832 				;**  ORA
  3833 				;* A = $FF, memory = 0
  3834 EFF8 A9 C1				lda	#$C1
  3835 EFFA 85 03				sta	Test
  3836
  3837 EFFC A9 00				lda	#0
  3838 EFFE 85 10				sta	TmpZP0
  3839 F000 8D 00 10				sta	TmpAB0
  3840 F003 95 10				sta	TmpZP0,X
  3841 F005 9D 00 10				sta	TmpAB0,X
  3842 F008 99 00 10				sta	TmpAB0,Y
  3843 F00B 81 10				sta	(TmpZP0,X)
  3844 F00D 91 14				sta	(TmpZP0+4),Y
  3845
  3846 F00F A9 FF				lda	#$FF
  3847 F011 09 00				ora	#0
  3848 F013			L722
  3849 F013 10 FE				bpl	L722		; error, ->
  3850
  3851 F015 C9 FF				cmp	#$FF
  3852 F017			L721
  3853 F017 D0 FE				bne	L721		; error, ->
  3854
  3855 F019 A9 C2				lda	#$C2
  3856 F01B 85 03				sta	Test
  3857
  3858 F01D A9 FF				lda	#$FF
  3859 F01F 05 10				ora	TmpZP0
  3860 F021			L732
  3861 F021 10 FE				bpl	L732		; error, ->
  3862
  3863 F023 C9 FF				cmp	#$FF
  3864 F025			L731
  3865 F025 D0 FE				bne	L731		; error, ->
  3866
  3867 F027 A9 C3				lda	#$C3
  3868 F029 85 03				sta	Test
  3869
  3870 F02B A9 FF				lda	#$FF
  3871 F02D 0D 00 10				ora	TmpAB0
  3872 F030			L742
  3873 F030 10 FE				bpl	L742		; error, ->
  3874
  3875 F032 C9 FF				cmp	#$FF
  3876 F034			L741
  3877 F034 D0 FE				bne	L741		; error, ->
  3878
  3879 F036 A9 C4				lda	#$C4
  3880 F038 85 03				sta	Test
  3881
  3882 F03A A9 FF				lda	#$FF
  3883 F03C 15 10				ora	TmpZP0,X
  3884 F03E			L752
  3885 F03E 10 FE				bpl	L752		; error, ->
  3886
  3887 F040 C9 FF				cmp	#$FF
  3888 F042			L751
  3889 F042 D0 FE				bne	L751		; error, ->
  3890
  3891 F044 A9 C5				lda	#$C5
  3892 F046 85 03				sta	Test
  3893
  3894 F048 A9 FF				lda	#$FF
  3895 F04A 1D 00 10				ora	TmpAB0,X
  3896 F04D			L762
  3897 F04D 10 FE				bpl	L762		; error, ->
  3898
  3899 F04F C9 FF				cmp	#$FF
  3900 F051			L761
  3901 F051 D0 FE				bne	L761		; error, ->
  3902
  3903 F053 A9 C6				lda	#$C6
  3904 F055 85 03				sta	Test
  3905
  3906 F057 A9 FF				lda	#$FF
  3907 F059 19 00 10				ora	TmpAB0,Y
  3908 F05C			L772
  3909 F05C 10 FE				bpl	L772		; error, ->
  3910
  3911 F05E C9 FF				cmp	#$FF
  3912 F060			L771
  3913 F060 D0 FE				bne	L771		; error, ->
  3914
  3915 F062 A9 C7				lda	#$C7
  3916 F064 85 03				sta	Test
  3917
  3918 F066 A9 FF				lda	#$FF
  3919 F068 01 10				ora	(TmpZP0,X)
  3920 F06A			L782
  3921 F06A 10 FE				bpl	L782		; error, ->
  3922
  3923 F06C C9 FF				cmp	#$FF
  3924 F06E			L781
  3925 F06E D0 FE				bne	L781		; error, ->
  3926
  3927 F070 A9 C8				lda	#$C8
  3928 F072 85 03				sta	Test
  3929
  3930 F074 A9 FF				lda	#$FF
  3931 F076 11 14				ora	(TmpZP0+4),Y
  3932 F078			L792
  3933 F078 10 FE				bpl	L792		; error, ->
  3934
  3935 F07A C9 FF				cmp	#$FF
  3936 F07C			L791
  3937 F07C D0 FE				bne	L791		; error, ->
  3938
  3939 				;* A = 0, memory = $FF
  3940 F07E A9 C9				lda	#$C9
  3941 F080 85 03				sta	Test
  3942
  3943 F082 A9 FF				lda	#$FF
  3944 F084 85 10				sta	TmpZP0
  3945 F086 8D 00 10				sta	TmpAB0
  3946 F089 95 10				sta	TmpZP0,X
  3947 F08B 9D 00 10				sta	TmpAB0,X
  3948 F08E 99 00 10				sta	TmpAB0,Y
  3949 F091 81 10				sta	(TmpZP0,X)
  3950 F093 91 14				sta	(TmpZP0+4),Y
  3951
  3952 F095 A9 00				lda	#0
  3953 F097 09 FF				ora	#$FF
  3954 F099			L822
  3955 F099 10 FE				bpl	L822		; error, ->
  3956
  3957 F09B C9 FF				cmp	#$FF
  3958 F09D			L821
  3959 F09D D0 FE				bne	L821		; error, ->
  3960
  3961 F09F A9 CA				lda	#$CA
  3962 F0A1 85 03				sta	Test
  3963
  3964 F0A3 A9 00				lda	#0
  3965 F0A5 05 10				ora	TmpZP0
  3966 F0A7			L832
  3967 F0A7 10 FE				bpl	L832		; error, ->
  3968
  3969 F0A9 C9 FF				cmp	#$FF
  3970 F0AB			L831
  3971 F0AB D0 FE				bne	L831		; error, ->
  3972
  3973 F0AD A9 CB				lda	#$CB
  3974 F0AF 85 03				sta	Test
  3975
  3976 F0B1 A9 00				lda	#0
  3977 F0B3 0D 00 10				ora	TmpAB0
  3978 F0B6			L842
  3979 F0B6 10 FE				bpl	L842		; error, ->
  3980
  3981 F0B8 C9 FF				cmp	#$FF
  3982 F0BA			L841
  3983 F0BA D0 FE				bne	L841		; error, ->
  3984
  3985 F0BC A9 CC				lda	#$CC
  3986 F0BE 85 03				sta	Test
  3987
  3988 F0C0 A9 00				lda	#0
  3989 F0C2 15 10				ora	TmpZP0,X
  3990 F0C4			L852
  3991 F0C4 10 FE				bpl	L852		; error, ->
  3992
  3993 F0C6 C9 FF				cmp	#$FF
  3994 F0C8			L851
  3995 F0C8 D0 FE				bne	L851		; error, ->
  3996
  3997 F0CA A9 CD				lda	#$CD
  3998 F0CC 85 03				sta	Test
  3999
  4000 F0CE A9 00				lda	#0
  4001 F0D0 1D 00 10				ora	TmpAB0,X
  4002 F0D3			L862
  4003 F0D3 10 FE				bpl	L862		; error, ->
  4004
  4005 F0D5 C9 FF				cmp	#$FF
  4006 F0D7			L861
  4007 F0D7 D0 FE				bne	L861		; error, ->
  4008
  4009 F0D9 A9 CE				lda	#$CE
  4010 F0DB 85 03				sta	Test
  4011
  4012 F0DD A9 00				lda	#0
  4013 F0DF 19 00 10				ora	TmpAB0,Y
  4014 F0E2			L872
  4015 F0E2 10 FE				bpl	L872		; error, ->
  4016
  4017 F0E4 C9 FF				cmp	#$FF
  4018 F0E6			L871
  4019 F0E6 D0 FE				bne	L871		; error, ->
  4020
  4021 F0E8 A9 CF				lda	#$CF
  4022 F0EA 85 03				sta	Test
  4023
  4024 F0EC A9 00				lda	#0
  4025 F0EE 01 10				ora	(TmpZP0,X)
  4026 F0F0			L882
  4027 F0F0 10 FE				bpl	L882		; error, ->
  4028
  4029 F0F2 C9 FF				cmp	#$FF
  4030 F0F4			L881
  4031 F0F4 D0 FE				bne	L881		; error, ->
  4032
  4033 F0F6 A9 D0				lda	#$D0
  4034 F0F8 85 03				sta	Test
  4035
  4036 F0FA A9 00				lda	#0
  4037 F0FC 11 14				ora	(TmpZP0+4),Y
  4038 F0FE			L892
  4039 F0FE 10 FE				bpl	L892		; error, ->
  4040
  4041 F100 C9 FF				cmp	#$FF
  4042 F102			L891
  4043 F102 D0 FE				bne	L891		; error, ->
  4044
  4045 				;* A = 0, memory = 0
  4046 F104 A9 D1				lda	#$D1
  4047 F106 85 03				sta	Test
  4048
  4049 F108 A9 00				lda	#0
  4050 F10A 85 10				sta	TmpZP0
  4051 F10C 8D 00 10				sta	TmpAB0
  4052 F10F 95 10				sta	TmpZP0,X
  4053 F111 9D 00 10				sta	TmpAB0,X
  4054 F114 99 00 10				sta	TmpAB0,Y
  4055 F117 81 10				sta	(TmpZP0,X)
  4056 F119 91 14				sta	(TmpZP0+4),Y
  4057
  4058 F11B A9 00				lda	#0
  4059 F11D 09 00				ora	#0
  4060 F11F			L922
  4061 F11F 30 FE				bmi	L922		; error, ->
  4062 F121			L921
  4063 F121 D0 FE				bne	L921		; error, ->
  4064
  4065 F123 A9 CA				lda	#$CA
  4066 F125 85 03				sta	Test
  4067
  4068 F127 A9 00				lda	#0
  4069 F129 05 10				ora	TmpZP0
  4070 F12B			L932
  4071 F12B 30 FE				bmi	L932		; error, ->
  4072 F12D			L931
  4073 F12D D0 FE				bne	L931		; error, ->
  4074
  4075 F12F A9 CB				lda	#$CB
  4076 F131 85 03				sta	Test
  4077
  4078 F133 A9 00				lda	#0
  4079 F135 0D 00 10				ora	TmpAB0
  4080 F138			L942
  4081 F138 30 FE				bmi	L942		; error, ->
  4082 F13A			L941
  4083 F13A D0 FE				bne	L941		; error, ->
  4084
  4085 F13C A9 CC				lda	#$CC
  4086 F13E 85 03				sta	Test
  4087
  4088 F140 A9 00				lda	#0
  4089 F142 15 10				ora	TmpZP0,X
  4090 F144			L952
  4091 F144 30 FE				bmi	L952		; error, ->
  4092 F146			L951
  4093 F146 D0 FE				bne	L951		; error, ->
  4094
  4095 F148 A9 CD				lda	#$CD
  4096 F14A 85 03				sta	Test
  4097
  4098 F14C A9 00				lda	#0
  4099 F14E 1D 00 10				ora	TmpAB0,X
  4100 F151			L962
  4101 F151 30 FE				bmi	L962		; error, ->
  4102 F153			L961
  4103 F153 D0 FE				bne	L961		; error, ->
  4104
  4105 F155 A9 CE				lda	#$CE
  4106 F157 85 03				sta	Test
  4107
  4108 F159 A9 00				lda	#0
  4109 F15B 19 00 10				ora	TmpAB0,Y
  4110 F15E			L972
  4111 F15E 30 FE				bmi	L972		; error, ->
  4112 F160			L971
  4113 F160 D0 FE				bne	L971		; error, ->
  4114
  4115 F162 A9 CF				lda	#$CF
  4116 F164 85 03				sta	Test
  4117
  4118 F166 A9 00				lda	#0
  4119 F168 01 10				ora	(TmpZP0,X)
  4120 F16A			L982
  4121 F16A 30 FE				bmi	L982		; error, ->
  4122 F16C			L981
  4123 F16C D0 FE				bne	L981		; error, ->
  4124
  4125 F16E A9 D0				lda	#$D0
  4126 F170 85 03				sta	Test
  4127
  4128 F172 A9 00				lda	#0
  4129 F174 11 14				ora	(TmpZP0+4),Y
  4130 F176			L992
  4131 F176 30 FE				bmi	L992		; error, ->
  4132 F178			L991
  4133 F178 D0 FE				bne	L991		; error, ->
  4134
  4135
  4136 				;**  ASL
  4137 				;* ASL A
  4138 F17A A9 D1				lda	#$D1
  4139 F17C 85 03				sta	Test
  4140
  4141 F17E A9 01				lda	#1
  4142 F180 38					sec
  4143 F181 0A					asl
  4144 F182			M001
  4145 F182 B0 FE				bcs	M001
  4146 F184			M002
  4147 F184 30 02				bmi	M003
  4148
  4149 F186 C9 02				cmp	#2
  4150 F188			M003
  4151 F188 D0 FE				bne	M003
  4152
  4153 F18A 38					sec
  4154 F18B 0A					asl
  4155 F18C			M004
  4156 F18C B0 FE				bcs	M004
  4157 F18E			M005
  4158 F18E 30 FE				bmi	M005
  4159
  4160 F190 C9 04				cmp	#4
  4161 F192			M006
  4162 F192 D0 FE				bne	M006
  4163
  4164 F194 38					sec
  4165 F195 0A					asl
  4166 F196			M007
  4167 F196 B0 FE				bcs	M007
  4168 F198			M008
  4169 F198 30 FE				bmi	M008
  4170
  4171 F19A C9 08				cmp	#8
  4172 F19C			M009
  4173 F19C D0 FE				bne	M009
  4174
  4175 F19E 38					sec
  4176 F19F 0A					asl
  4177 F1A0			M010
  4178 F1A0 B0 FE				bcs	M010
  4179 F1A2			M011
  4180 F1A2 30 FE				bmi	M011
  4181
  4182 F1A4 C9 10				cmp	#$10
  4183 F1A6			M012
  4184 F1A6 D0 FE				bne	M012
  4185
  4186 F1A8 38					sec
  4187 F1A9 0A					asl
  4188 F1AA			M013
  4189 F1AA B0 FE				bcs	M013
  4190 F1AC			M014
  4191 F1AC 30 FE				bmi	M014
  4192
  4193 F1AE C9 20				cmp	#$20
  4194 F1B0			M015
  4195 F1B0 D0 FE				bne	M015
  4196
  4197 F1B2 38					sec
  4198 F1B3 0A					asl
  4199 F1B4			M016
  4200 F1B4 B0 FE				bcs	M016
  4201 F1B6			M017
  4202 F1B6 30 FE				bmi	M017
  4203
  4204 F1B8 C9 40				cmp	#$40
  4205 F1BA			M018
  4206 F1BA D0 FE				bne	M018
  4207
  4208 F1BC 38					sec
  4209 F1BD 0A					asl
  4210 F1BE			M019
  4211 F1BE B0 FE				bcs	M019
  4212 F1C0			M020
  4213 F1C0 10 FE				bpl	M020
  4214
  4215 F1C2 C9 80				cmp	#$80
  4216 F1C4			M021
  4217 F1C4 D0 FE				bne	M021
  4218
  4219 F1C6 0A					asl
  4220 F1C7			M022
  4221 F1C7 90 FE				bcc	M022
  4222 F1C9			M023
  4223 F1C9 30 FE				bmi	M023
  4224 F1CB			M024
  4225 F1CB D0 FE				bne	M024
  4226
  4227 				;* Rest of possible ASL opcodes. Only read/write has to be tested because
  4228 				;   the shifting itself doesn't have to be tested anymore.  
  4229 F1CD A9 55				lda	#$55
  4230 F1CF 85 10				sta	TmpZP0
  4231 F1D1 8D 00 10				sta	TmpAB0
  4232 F1D4 95 10				sta	TmpZP0,X
  4233 F1D6 9D 00 10				sta	TmpAB0,X
  4234
  4235 F1D9 A9 D2				lda	#$D2
  4236 F1DB 85 03				sta	Test
  4237
  4238 F1DD 06 10				asl	TmpZP0
  4239 F1DF A5 10				lda	TmpZP0
  4240 F1E1 C9 AA				cmp	#$AA
  4241 F1E3			M025		
  4242 F1E3 D0 FE				bne	M025
  4243
  4244 F1E5 A9 D3				lda	#$D3
  4245 F1E7 85 03				sta	Test
  4246
  4247 F1E9 0E 00 10				asl	TmpAB0
  4248 F1EC AD 00 10				lda	TmpAB0
  4249 F1EF C9 AA				cmp	#$AA
  4250 F1F1			M026		
  4251 F1F1 D0 FE				bne	M026
  4252
  4253 F1F3 A9 D4				lda	#$D4
  4254 F1F5 85 03				sta	Test
  4255
  4256 F1F7 16 10				asl	TmpZP0,X
  4257 F1F9 B5 10				lda	TmpZP0,X
  4258 F1FB C9 AA				cmp	#$AA
  4259 F1FD			M027		
  4260 F1FD D0 FE				bne	M027
  4261
  4262 F1FF A9 D5				lda	#$D5
  4263 F201 85 03				sta	Test
  4264
  4265 F203 1E 00 10				asl	TmpAB0,X
  4266 F206 BD 00 10				lda	TmpAB0,X
  4267 F209 C9 AA				cmp	#$AA
  4268 F20B			M028		
  4269 F20B D0 FE				bne	M028
  4270
  4271
  4272 				;**  LSR
  4273 F20D A9 D6				lda	#$D6
  4274 F20F 85 03				sta	Test
  4275
  4276 F211 A9 80				lda	#$80
  4277 F213 38					sec
  4278 F214 4A					lsr
  4279 F215			M031
  4280 F215 B0 FE				bcs	M031
  4281 F217			M032
  4282 F217 30 FE				bmi	M032
  4283
  4284 F219 C9 40				cmp	#$40
  4285 F21B			M033
  4286 F21B D0 FE				bne	M033
  4287
  4288 F21D 38					sec
  4289 F21E 4A					lsr
  4290 F21F			M034
  4291 F21F B0 FE				bcs	M034
  4292 F221			M035
  4293 F221 30 FE				bmi	M035
  4294
  4295 F223 C9 20				cmp	#$20
  4296 F225			M036
  4297 F225 D0 FE				bne	M036
  4298
  4299 F227 38					sec
  4300 F228 4A					lsr
  4301 F229			M037
  4302 F229 B0 FE				bcs	M037
  4303 F22B			M038
  4304 F22B 30 FE				bmi	M038
  4305
  4306 F22D C9 10				cmp	#$10
  4307 F22F			M039
  4308 F22F D0 FE				bne	M039
  4309
  4310 F231 38					sec
  4311 F232 4A					lsr
  4312 F233			M041
  4313 F233 B0 FE				bcs	M041
  4314 F235			M042
  4315 F235 30 02				bmi	M043
  4316
  4317 F237 C9 08				cmp	#8
  4318 F239			M043
  4319 F239 D0 FE				bne	M043
  4320
  4321 F23B 38					sec
  4322 F23C 4A					lsr
  4323 F23D			M044
  4324 F23D B0 FE				bcs	M044
  4325 F23F			M045
  4326 F23F 30 FE				bmi	M045
  4327
  4328 F241 C9 04				cmp	#4
  4329 F243			M046
  4330 F243 D0 FE				bne	M046
  4331
  4332 F245 38					sec
  4333 F246 4A					lsr
  4334 F247			M047
  4335 F247 B0 FE				bcs	M047
  4336 F249			M048
  4337 F249 30 FE				bmi	M048
  4338
  4339 F24B C9 02				cmp	#2
  4340 F24D			M049
  4341 F24D D0 FE				bne	M049
  4342
  4343 F24F 38					sec
  4344 F250 4A					lsr
  4345 F251			M051
  4346 F251 B0 FE				bcs	M051
  4347 F253			M052
  4348 F253 30 02				bmi	M053
  4349
  4350 F255 C9 01				cmp	#1
  4351 F257			M053
  4352 F257 D0 FE				bne	M053
  4353
  4354 F259 4A					lsr
  4355 F25A			M054
  4356 F25A 90 FE				bcc	M054
  4357 F25C			M055
  4358 F25C 30 FE				bmi	M055
  4359 F25E			M056
  4360 F25E D0 FE				bne	M056
  4361
  4362 				;* Rest of possible LSR opcodes. Only read/write has to be tested because
  4363 				;   the shifting itself doesn't have to be tested anymore.  
  4364 F260 A9 AA				lda	#$AA
  4365 F262 85 10				sta	TmpZP0
  4366 F264 8D 00 10				sta	TmpAB0
  4367 F267 95 10				sta	TmpZP0,X
  4368 F269 9D 00 10				sta	TmpAB0,X
  4369
  4370 F26C A9 D7				lda	#$D7
  4371 F26E 85 03				sta	Test
  4372
  4373 F270 46 10				lsr	TmpZP0
  4374 F272 A5 10				lda	TmpZP0
  4375 F274 C9 55				cmp	#$55
  4376 F276			M057		
  4377 F276 D0 FE				bne	M057
  4378
  4379 F278 A9 D8				lda	#$D8
  4380 F27A 85 03				sta	Test
  4381
  4382 F27C 4E 00 10				lsr	TmpAB0
  4383 F27F AD 00 10				lda	TmpAB0
  4384 F282 C9 55				cmp	#$55
  4385 F284			M058		
  4386 F284 D0 FE				bne	M058
  4387
  4388 F286 A9 D9				lda	#$D9
  4389 F288 85 03				sta	Test
  4390
  4391 F28A 56 10				lsr	TmpZP0,X
  4392 F28C B5 10				lda	TmpZP0,X
  4393 F28E C9 55				cmp	#$55
  4394 F290			M059		
  4395 F290 D0 FE				bne	M059
  4396
  4397 F292 A9 DA				lda	#$DA
  4398 F294 85 03				sta	Test
  4399
  4400 F296 5E 00 10				lsr	TmpAB0,X
  4401 F299 BD 00 10				lda	TmpAB0,X
  4402 F29C C9 55				cmp	#$55
  4403 F29E			M060		
  4404 F29E D0 FE				bne	M060
  4405
  4406
  4407 				;**  ROL
  4408 F2A0 A9 D8				lda	#$D8
  4409 F2A2 85 03				sta	Test
  4410
  4411 F2A4 A9 11				lda	#$11
  4412 F2A6 18					clc
  4413 F2A7 2A					rol
  4414 F2A8			M071
  4415 F2A8 B0 FE				bcs	M071
  4416 F2AA			M072
  4417 F2AA 30 FE				bmi	M072
  4418 						
  4419 F2AC C9 22				cmp	#$22
  4420 F2AE			M073
  4421 F2AE D0 FE				bne	M073
  4422 						
  4423 F2B0 38					sec
  4424 F2B1 2A					rol
  4425 F2B2			M074
  4426 F2B2 B0 FE				bcs	M074
  4427 F2B4			M075
  4428 F2B4 30 FE				bmi	M075
  4429 						
  4430 F2B6 C9 45				cmp	#$45
  4431 F2B8			M076
  4432 F2B8 D0 FE				bne	M076
  4433 						
  4434 F2BA 18					clc
  4435 F2BB 2A					rol
  4436 F2BC			M077
  4437 F2BC B0 FE				bcs	M077
  4438 F2BE			M078
  4439 F2BE 10 FE				bpl	M078
  4440 						
  4441 F2C0 C9 8A				cmp	#$8A
  4442 F2C2			M079
  4443 F2C2 D0 FE				bne	M079
  4444 						
  4445 F2C4 18					clc
  4446 F2C5 2A					rol
  4447 F2C6			M081
  4448 F2C6 90 FE				bcc	M081
  4449 F2C8			M082
  4450 F2C8 30 FE				bmi	M082
  4451 						
  4452 F2CA C9 14				cmp	#TmpZP0+4
  4453 F2CC			M083
  4454 F2CC D0 FE				bne	M083
  4455 						
  4456 				;* Rest of possible ROL opcodes. Only read/write has to be tested because
  4457 				;   the shifting itself doesn't have to be tested anymore.  
  4458 F2CE A9 55				lda	#$55
  4459 F2D0 85 10				sta	TmpZP0
  4460 F2D2 8D 00 10				sta	TmpAB0
  4461 F2D5 95 10				sta	TmpZP0,X
  4462 F2D7 9D 00 10				sta	TmpAB0,X
  4463
  4464 F2DA A9 D9				lda	#$D9
  4465 F2DC 85 03				sta	Test
  4466
  4467 F2DE 38					sec
  4468 F2DF 26 10				rol	TmpZP0
  4469 F2E1 A5 10				lda	TmpZP0
  4470 F2E3 C9 AB				cmp	#$AB
  4471 F2E5			M085		
  4472 F2E5 D0 FE				bne	M085
  4473
  4474 F2E7 A9 DA				lda	#$DA
  4475 F2E9 85 03				sta	Test
  4476
  4477 F2EB 38					sec
  4478 F2EC 2E 00 10				rol	TmpAB0
  4479 F2EF AD 00 10				lda	TmpAB0
  4480 F2F2 C9 AB				cmp	#$AB
  4481 F2F4			M086		
  4482 F2F4 D0 FE				bne	M086
  4483
  4484 F2F6 A9 DB				lda	#$DB
  4485 F2F8 85 03				sta	Test
  4486
  4487 F2FA 38					sec
  4488 F2FB 36 10				rol	TmpZP0,X
  4489 F2FD B5 10				lda	TmpZP0,X
  4490 F2FF C9 AB				cmp	#$AB
  4491 F301			M087		
  4492 F301 D0 FE				bne	M087
  4493
  4494 F303 A9 DC				lda	#$DC
  4495 F305 85 03				sta	Test
  4496
  4497 F307 38					sec
  4498 F308 3E 00 10				rol	TmpAB0,X
  4499 F30B BD 00 10				lda	TmpAB0,X
  4500 F30E C9 AB				cmp	#$AB
  4501 F310			M088		
  4502 F310 D0 FE				bne	M088
  4503
  4504 				;**  ROR
  4505 F312 A9 DD				lda	#$DD
  4506 F314 85 03				sta	Test
  4507
  4508 F316 A9 88				lda	#$88
  4509 F318 18					clc
  4510 F319 6A					ror
  4511 F31A			M091
  4512 F31A B0 FE				bcs	M091
  4513 F31C			M092
  4514 F31C 30 FE				bmi	M092
  4515 						
  4516 F31E C9 44				cmp	#$44
  4517 F320			M093
  4518 F320 D0 FE				bne	M093
  4519 						
  4520 F322 38					sec
  4521 F323 6A					ror
  4522 F324			M094
  4523 F324 B0 FE				bcs	M094
  4524 F326			M095
  4525 F326 10 FE				bpl	M095
  4526 						
  4527 F328 C9 A2				cmp	#$A2
  4528 F32A			M096
  4529 F32A D0 FE				bne	M096
  4530 						
  4531 F32C 18					clc
  4532 F32D 6A					ror
  4533 F32E			M097
  4534 F32E B0 FE				bcs	M097
  4535 F330			M098
  4536 F330 30 FE				bmi	M098
  4537 						
  4538 F332 C9 51				cmp	#$51
  4539 F334			M099
  4540 F334 D0 FE				bne	M099
  4541 						
  4542 F336 18					clc
  4543 F337 6A					ror
  4544 F338			M101
  4545 F338 90 FE				bcc	M101
  4546 F33A			M102
  4547 F33A 30 FE				bmi	M102
  4548 						
  4549 F33C C9 28				cmp	#$28
  4550 F33E			M103
  4551 F33E D0 FE				bne	M103
  4552 						
  4553 				;* Rest of possible ror opcodes. Only read/write has to be tested because
  4554 				;   the shifting itself doesn't have to be tested anymore.  
  4555 F340 A9 AA				lda	#$AA
  4556 F342 85 10				sta	TmpZP0
  4557 F344 8D 00 10				sta	TmpAB0
  4558 F347 95 10				sta	TmpZP0,X
  4559 F349 9D 00 10				sta	TmpAB0,X
  4560
  4561 F34C A9 DE				lda	#$DE
  4562 F34E 85 03				sta	Test
  4563
  4564 F350 38					sec
  4565 F351 66 10				ror	TmpZP0
  4566 F353 A5 10				lda	TmpZP0
  4567 F355 C9 D5				cmp	#$D5
  4568 F357			M105		
  4569 F357 D0 FE				bne	M105
  4570
  4571 F359 A9 DF				lda	#$DF
  4572 F35B 85 03				sta	Test
  4573
  4574 F35D 38					sec
  4575 F35E 6E 00 10				ror	TmpAB0
  4576 F361 AD 00 10				lda	TmpAB0
  4577 F364 C9 D5				cmp	#$D5
  4578 F366			M106		
  4579 F366 D0 FE				bne	M106
  4580
  4581 F368 A9 E0				lda	#$E0
  4582 F36A 85 03				sta	Test
  4583
  4584 F36C 38					sec
  4585 F36D 76 10				ror	TmpZP0,X
  4586 F36F B5 10				lda	TmpZP0,X
  4587 F371 C9 D5				cmp	#$D5
  4588 F373			M107		
  4589 F373 D0 FE				bne	M107
  4590
  4591 F375 A9 E1				lda	#$E1
  4592 F377 85 03				sta	Test
  4593
  4594 F379 38					sec
  4595 F37A 7E 00 10				ror	TmpAB0,X
  4596 F37D BD 00 10				lda	TmpAB0,X
  4597 F380 C9 D5				cmp	#$D5
  4598 F382			M108		
  4599 F382 D0 FE				bne	M108
  4600
  4601
  4602 				;**  BIT
  4603 F384 A9 E1				lda	#$E1
  4604 F386 85 03				sta	Test
  4605
  4606 				;* A = $FF, memory = 0
  4607 F388 A9 00				lda	#0
  4608 F38A 85 10				sta	TmpZP0
  4609 F38C 8D 00 10				sta	TmpAB0
  4610
  4611 F38F A9 FF				lda	#$FF
  4612 F391 24 10				bit	TmpZP0
  4613 F393			M111
  4614 F393 D0 FE				bne	M111		; error, ->
  4615 F395			M112
  4616 F395 30 FE				bmi	M112		; error, ->
  4617 F397			M113
  4618 F397 70 FE				bvs	M113		; error, ->
  4619
  4620 F399 A9 E2				lda	#$E2
  4621 F39B 85 03				sta	Test
  4622
  4623 F39D A9 FF				lda	#$FF
  4624 F39F 2C 00 10				bit	TmpAB0
  4625 F3A2			M121
  4626 F3A2 D0 FE				bne	M121		; error, ->
  4627 F3A4			M122
  4628 F3A4 30 FE				bmi	M122		; error, ->
  4629 F3A6			M123
  4630 F3A6 70 FE				bvs	M123		; error, ->
  4631
  4632
  4633 				;* A = 0, memory = $FF
  4634 F3A8 A9 E3				lda	#$E3
  4635 F3AA 85 03				sta	Test
  4636
  4637 F3AC A9 FF				lda	#$FF
  4638 F3AE 85 10				sta	TmpZP0
  4639 F3B0 8D 00 10				sta	TmpAB0
  4640
  4641 F3B3 A9 00				lda	#0
  4642 F3B5 24 10				bit	TmpZP0
  4643 F3B7			M131
  4644 F3B7 D0 FE				bne	M131		; error, ->
  4645 F3B9			M132
  4646 F3B9 10 FE				bpl	M132		; error, ->
  4647 F3BB			M133
  4648 F3BB 50 FE				bvc	M133		; error, ->
  4649
  4650 F3BD A9 E4				lda	#$E4
  4651 F3BF 85 03				sta	Test
  4652
  4653 F3C1 A9 00				lda	#0
  4654 F3C3 2C 00 10				bit	TmpAB0
  4655 F3C6			M141
  4656 F3C6 D0 FE				bne	M141		; error, ->
  4657 F3C8			M142
  4658 F3C8 10 FE				bpl	M142		; error, ->
  4659 F3CA			M143
  4660 F3CA 50 FE				bvc	M143		; error, ->
  4661
  4662
  4663 				;* A = $54, memory = $55
  4664 F3CC A9 E5				lda	#$E5
  4665 F3CE 85 03				sta	Test
  4666
  4667 F3D0 A9 55				lda	#$55
  4668 F3D2 85 10				sta	TmpZP0
  4669 F3D4 8D 00 10				sta	TmpAB0
  4670
  4671 F3D7 A9 54				lda	#$54
  4672 F3D9 24 10				bit	TmpZP0
  4673 F3DB			M151
  4674 F3DB F0 FE				beq	M151		; error, ->
  4675 F3DD			M152
  4676 F3DD 30 FE				bmi	M152		; error, ->
  4677 F3DF			M153
  4678 F3DF 50 FE				bvc	M153		; error, ->
  4679
  4680 F3E1 A9 E6				lda	#$E6
  4681 F3E3 85 03				sta	Test
  4682
  4683 F3E5 A9 54				lda	#$54
  4684 F3E7 2C 00 10				bit	TmpAB0
  4685 F3EA			M161
  4686 F3EA F0 FE				beq	M161		; error, ->
  4687 F3EC			M162
  4688 F3EC 30 FE				bmi	M162		; error, ->
  4689 F3EE			M163
  4690 F3EE 50 FE				bvc	M163		; error, ->
  4691
  4692
  4693 				;**  DEC
  4694 				;   Only read/write has to be tested because the decrement itself
  4695 				;   doesn't have to be tested anymore; done with DEX and DEY. 
  4696 F3F0 A9 E7				lda	#$E7
  4697 F3F2 85 03				sta	Test
  4698
  4699 F3F4 A9 AA				lda	#$AA
  4700 F3F6 85 10				sta	TmpZP0
  4701 F3F8 8D 00 10				sta	TmpAB0
  4702 F3FB 95 10				sta	TmpZP0,X
  4703 F3FD 9D 00 10				sta	TmpAB0,X
  4704
  4705 F400 C6 10				dec	TmpZP0
  4706 F402 A5 10				lda	TmpZP0
  4707 F404 C9 A9				cmp	#$A9
  4708 F406			M171
  4709 F406 D0 FE				bne	M171
  4710 						
  4711 F408 CE 00 10				dec	TmpAB0
  4712 F40B AD 00 10				lda	TmpAB0
  4713 F40E C9 A9				cmp	#$A9
  4714 F410			M172
  4715 F410 D0 FE				bne	M172
  4716 						
  4717 F412 D6 10				dec	TmpZP0,X
  4718 F414 B5 10				lda	TmpZP0,X
  4719 F416 C9 A9				cmp	#$A9
  4720 F418			M173
  4721 F418 D0 FE				bne	M173
  4722 						
  4723 F41A DE 00 10				dec	TmpAB0,X
  4724 F41D BD 00 10				lda	TmpAB0,x
  4725 F420 C9 A9				cmp	#$A9
  4726 F422			M174
  4727 F422 D0 FE				bne	M174
  4728 						
  4729 				;**  DEC
  4730 				;   Only read/write has to be tested because the decrement itself
  4731 				;   doesn't have to be tested anymore; done with DEX and DEY. 
  4732 F424 A9 E7				lda	#$E7
  4733 F426 85 03				sta	Test
  4734
  4735 F428 E6 10				inc	TmpZP0
  4736 F42A A5 10				lda	TmpZP0
  4737 F42C C9 AA				cmp	#$AA
  4738 F42E			M181
  4739 F42E D0 FE				bne	M181
  4740 						
  4741 F430 EE 00 10				inc	TmpAB0
  4742 F433 AD 00 10				lda	TmpAB0
  4743 F436 C9 AA				cmp	#$AA
  4744 F438			M182
  4745 F438 D0 FE				bne	M182
  4746 						
  4747 F43A F6 10				inc	TmpZP0,X
  4748 F43C B5 10				lda	TmpZP0,X
  4749 F43E C9 AA				cmp	#$AA
  4750 F440			M183
  4751 F440 D0 FE				bne	M183
  4752 						
  4753 F442 FE 00 10				inc	TmpAB0,X
  4754 F445 BD 00 10				lda	TmpAB0,x
  4755 F448 C9 AA				cmp	#$AA
  4756 F44A			M184
  4757 F44A D0 FE				bne	M184
  4758 						
  4759 						
  4760 				;**  EOR
  4761 				;* A = $AA, memory = $55
  4762 F44C A9 E8				lda	#$E8
  4763 F44E 85 03				sta	Test
  4764
  4765 F450 A9 55				lda	#$55
  4766 F452 85 10				sta	TmpZP0
  4767 F454 8D 00 10				sta	TmpAB0
  4768 F457 95 10				sta	TmpZP0,X
  4769 F459 9D 00 10				sta	TmpAB0,X
  4770 F45C 99 00 10				sta	TmpAB0,Y
  4771 F45F 81 10				sta	(TmpZP0,X)
  4772 F461 91 14				sta	(TmpZP0+4),Y
  4773
  4774 F463 A9 AA				lda	#$AA
  4775 F465 49 55				eor	#$55
  4776 F467			M191
  4777 F467 F0 FE				beq	M191		; error, ->
  4778 F469			M192
  4779 F469 10 FE				bpl	M192		; error, ->
  4780 						
  4781 F46B C9 FF				cmp	#$FF
  4782 F46D			M193
  4783 F46D D0 FE				bne	M193
  4784
  4785 F46F A9 E9				lda	#$E9
  4786 F471 85 03				sta	Test
  4787
  4788 F473 A9 AA				lda	#$AA
  4789 F475 45 10				eor	TmpZP0
  4790 F477			M201
  4791 F477 F0 FE				beq	M201		; error, ->
  4792 F479			M202
  4793 F479 10 FE				bpl	M202		; error, ->
  4794
  4795 F47B C9 FF				cmp	#$FF
  4796 F47D			M203
  4797 F47D D0 FE				bne	M203
  4798
  4799 F47F A9 EA				lda	#$EA
  4800 F481 85 03				sta	Test
  4801
  4802 F483 A9 AA				lda	#$AA
  4803 F485 4D 00 10				eor	TmpAB0
  4804 F488			M211
  4805 F488 F0 FE				beq	M211		; error, ->
  4806 F48A			M212
  4807 F48A 10 FE				bpl	M212		; error, ->
  4808
  4809 F48C C9 FF				cmp	#$FF
  4810 F48E			M213
  4811 F48E D0 FE				bne	M213
  4812
  4813 F490 A9 EB				lda	#$EB
  4814 F492 85 03				sta	Test
  4815
  4816 F494 A9 AA				lda	#$AA
  4817 F496 55 10				eor	TmpZP0,X
  4818 F498			M221
  4819 F498 F0 FE				beq	M221		; error, ->
  4820 F49A			M222
  4821 F49A 10 FE				bpl	M222		; error, ->
  4822
  4823 F49C C9 FF				cmp	#$FF
  4824 F49E			M223
  4825 F49E D0 FE				bne	M223
  4826
  4827 F4A0 A9 EC				lda	#$EC
  4828 F4A2 85 03				sta	Test
  4829
  4830 F4A4 A9 AA				lda	#$AA
  4831 F4A6 5D 00 10				eor	TmpAB0,X
  4832 F4A9			M231
  4833 F4A9 F0 FE				beq	M231		; error, ->
  4834 F4AB			M232
  4835 F4AB 10 FE				bpl	M232		; error, ->
  4836
  4837 F4AD C9 FF				cmp	#$FF
  4838 F4AF			M233
  4839 F4AF D0 FE				bne	M233
  4840
  4841 F4B1 A9 ED				lda	#$ED
  4842 F4B3 85 03				sta	Test
  4843
  4844 F4B5 A9 AA				lda	#$AA
  4845 F4B7 59 00 10				eor	TmpAB0,Y
  4846 F4BA			M241
  4847 F4BA F0 FE				beq	M241		; error, ->
  4848 F4BC			M242
  4849 F4BC 10 FE				bpl	M242		; error, ->
  4850
  4851 F4BE C9 FF				cmp	#$FF
  4852 F4C0			M243
  4853 F4C0 D0 FE				bne	M243
  4854
  4855 F4C2 A9 EE				lda	#$EE
  4856 F4C4 85 03				sta	Test
  4857
  4858 F4C6 A9 AA				lda	#$AA
  4859 F4C8 41 10				eor	(TmpZP0,X)
  4860 F4CA			M251
  4861 F4CA F0 FE				beq	M251		; error, ->
  4862 F4CC			M252
  4863 F4CC 10 FE				bpl	M252		; error, ->
  4864
  4865 F4CE C9 FF				cmp	#$FF
  4866 F4D0			M253
  4867 F4D0 D0 FE				bne	M253
  4868
  4869 F4D2 A9 EF				lda	#$EF
  4870 F4D4 85 03				sta	Test
  4871
  4872 F4D6 A9 AA				lda	#$AA
  4873 F4D8 51 14				eor	(TmpZP0+4),Y
  4874 F4DA			M261
  4875 F4DA F0 FE				beq	M261		; error, ->
  4876 F4DC			M262
  4877 F4DC 10 FE				bpl	M262		; error, ->
  4878
  4879 F4DE C9 FF				cmp	#$FF
  4880 F4E0			M263
  4881 F4E0 D0 FE				bne	M263
  4882
  4883 				;* A = $CC, memory = $CC
  4884 F4E2 A9 F0				lda	#$F0
  4885 F4E4 85 03				sta	Test
  4886
  4887 F4E6 A9 CC				lda	#$CC
  4888 F4E8 85 10				sta	TmpZP0
  4889 F4EA 8D 00 10				sta	TmpAB0
  4890 F4ED 95 10				sta	TmpZP0,X
  4891 F4EF 9D 00 10				sta	TmpAB0,X
  4892 F4F2 99 00 10				sta	TmpAB0,Y
  4893 F4F5 81 10				sta	(TmpZP0,X)
  4894 F4F7 91 14				sta	(TmpZP0+4),Y
  4895
  4896 F4F9 A9 CC				lda	#$CC
  4897 F4FB 49 CC				eor	#$CC
  4898 F4FD			M291
  4899 F4FD D0 FE				bne	M291		; error, ->
  4900 F4FF			M292
  4901 F4FF 30 FE				bmi	M292		; error, ->
  4902 						
  4903 F501 A9 F1				lda	#$F1
  4904 F503 85 03				sta	Test
  4905
  4906 F505 A9 CC				lda	#$CC
  4907 F507 45 10				eor	TmpZP0
  4908 F509			M301
  4909 F509 D0 FE				bne	M301		; error, ->
  4910 F50B			M302
  4911 F50B 30 FE				bmi	M302		; error, ->
  4912
  4913 F50D A9 F2				lda	#$F2
  4914 F50F 85 03				sta	Test
  4915
  4916 F511 A9 CC				lda	#$CC
  4917 F513 4D 00 10				eor	TmpAB0
  4918 F516			M311
  4919 F516 D0 FE				bne	M311		; error, ->
  4920 F518			M312
  4921 F518 30 FE				bmi	M312		; error, ->
  4922
  4923 F51A A9 F3				lda	#$F3
  4924 F51C 85 03				sta	Test
  4925
  4926 F51E A9 CC				lda	#$CC
  4927 F520 55 10				eor	TmpZP0,X
  4928 F522			M321
  4929 F522 D0 FE				bne	M321		; error, ->
  4930 F524			M322
  4931 F524 30 FE				bmi	M322		; error, ->
  4932
  4933 F526 A9 F4				lda	#$F4
  4934 F528 85 03				sta	Test
  4935
  4936 F52A A9 CC				lda	#$CC
  4937 F52C 5D 00 10				eor	TmpAB0,X
  4938 F52F			M331
  4939 F52F D0 FE				bne	M331		; error, ->
  4940 F531			M332
  4941 F531 30 FE				bmi	M332		; error, ->
  4942
  4943 F533 A9 F5				lda	#$F5
  4944 F535 85 03				sta	Test
  4945
  4946 F537 A9 CC				lda	#$CC
  4947 F539 59 00 10				eor	TmpAB0,Y
  4948 F53C			M341
  4949 F53C D0 FE				bne	M341		; error, ->
  4950 F53E			M342
  4951 F53E 30 FE				bmi	M342		; error, ->
  4952
  4953 F540 A9 F6				lda	#$F6
  4954 F542 85 03				sta	Test
  4955
  4956 F544 A9 CC				lda	#$CC
  4957 F546 41 10				eor	(TmpZP0,X)
  4958 F548			M351
  4959 F548 D0 FE				bne	M351		; error, ->
  4960 F54A			M352
  4961 F54A 30 FE				bmi	M352		; error, ->
  4962
  4963 F54C A9 F7				lda	#$F7
  4964 F54E 85 03				sta	Test
  4965
  4966 F550 A9 CC				lda	#$CC
  4967 F552 51 14				eor	(TmpZP0+4),Y
  4968 F554			M361
  4969 F554 D0 FE				bne	M361		; error, ->
  4970 F556			M362
  4971 F556 30 FE				bmi	M362		; error, ->
  4972
  4973
  4974 				;**  JMP ($xxxx)
  4975 F558 A9 F8				lda	#$F8
  4976 F55A 85 03				sta	Test
  4977
  4978 F55C A9 09				lda	#<(L000)
  4979 F55E 8D 00 10				sta	TmpAB0
  4980
  4981 F561 A9 E0				lda	#>(L000)
  4982 F563 8D 01 10				sta	TmpAB0+1
  4983
  4984 F566 6C 00 10				jmp	(TmpAB0)
  4985
  4986
  4987 				;* Should not be executed at all
  4988 F569 EA					nop
  4989 F56A 38					sec
  4990 F56B			M371
  4991 F56B B0 FE				bcs	M371
  4992 						
  4993 F56D EA					nop
  4994 F56E			M372
  4995 F56E EA					nop
  4996
  4997 						
  4998 				;**  JSR
  4999 F56F A9 F9				lda	#$F9
  5000 F571 85 03				sta	Test
  5001
  5002 F573 A2 F8				ldx	#$F8
  5003 F575 9A					txs
  5004 						
  5005 F576 38					sec
  5006 F577 A9 FF				lda	#$FF
  5007 F579 20 0D E0				jsr	L000a
  5008 F57C			M373
  5009 F57C B0 FE				bcs	M373
  5010 F57E			M374
  5011 F57E D0 FE				bne	M374
  5012
  5013 F580 EA					nop
  5014
  5015
  5016 				;**  PHP, PLP
  5017 F581 A9 FA				lda	#$FA
  5018 F583 85 03				sta	Test
  5019 						
  5020 F585 A9 FF				lda	#$FF
  5021 F587 48					pha
  5022 F588 68					pla
  5023 F589 85 06				sta	$06
  5024 F58B C9 FF				cmp	#$FF
  5025 F58D			XX01
  5026 F58D D0 FE				bne	XX01		    
  5027
  5028 F58F A2 00				ldx	#0
  5029 						
  5030 F591 A9 FF				lda	#$FF
  5031 F593 48					pha		
  5032 F594 28					plp
  5033 						
  5034 F595 8E F8 01				stx	$01F8
  5035 						
  5036 F598 08					php
  5037 F599 68					pla
  5038 F59A 85 08				sta	$08
  5039 F59C C9 FF				cmp	#$FF
  5040 F59E			M381
  5041 F59E D0 FE				bne	M381
  5042 						
  5043 F5A0 AA					tax
  5044
  5045 F5A1 A9 00				lda	#0
  5046 F5A3 48					pha		
  5047 F5A4 28					plp
  5048 						
  5049 F5A5 8E F8 01				stx	$01F8		; erase original value on purpose
  5050 						
  5051 F5A8 08					php
  5052 F5A9 68					pla
  5053 F5AA 29 20		 and #$20		   	; avoid T65 bug
  5054 F5AC C9 20				cmp	#$20
  5055 F5AE			M382
  5056 F5AE D0 FE				bne	M382
  5057
  5058
  5059 				;**  BRK, RTI
  5060 F5B0 A9 FB				lda	#$FB
  5061 F5B2 85 03				sta	Test
  5062 							    
  5063 F5B4 00					brk
  5064 F5B5 EA					nop
  5065 						
  5066
  5067 				;**  ADC  (3)             	Test ADC in decimal mode
  5068 F5B6 A9 FC				lda	#$FC
  5069 F5B8 85 03				sta	Test
  5070 							    
  5071 F5BA F8					sed
  5072 						
  5073 F5BB 18					clc
  5074 F5BC A9 12				lda	#$12
  5075 F5BE 69 34				adc	#$34
  5076 F5C0			M390
  5077 F5C0 B0 FE				bcs	M390
  5078
  5079 F5C2 C9 46				cmp	#$46
  5080 F5C4			M391
  5081 F5C4 D0 FE				bne	M391
  5082 F5C6			M392
  5083 F5C6 90 FE				bcc	M392
  5084 F5C8			M393
  5085 F5C8 30 FE				bmi	M393
  5086 						
  5087 F5CA 38					sec
  5088 F5CB 69 34				adc	#$34
  5089 F5CD			M395
  5090 F5CD B0 FE				bcs	M395
  5091 F5CF			M396
  5092 F5CF 10 FE				bpl	M396
  5093
  5094 F5D1 85 04				sta	$04		; to check possible bug in T65 	
  5095 F5D3 C9 81				cmp	#$81
  5096 F5D5			M394
  5097 F5D5 D0 FE				bne	M394
  5098
  5099 F5D7 18					clc
  5100 F5D8 69 19				adc	#$19
  5101 F5DA 85 04				sta	$04		; to check possible bug in T65 	
  5102 F5DC			M397
  5103 				;		bne	M397
  5104 F5DC F0 FE		        beq M397    ; fix bug in test
  5105 F5DE			M398
  5106 F5DE 90 FE				bcc	M398
  5107 F5E0			M399
  5108 				;		bmi	M399
  5109 F5E0 10 FE				bpl	M399    ; fix another bug in test
  5110
  5111
  5112 				;**  SBC  (3)             	Test SBC in decimal mode
  5113 F5E2 A9 FD				lda	#$FD
  5114 F5E4 85 03				sta	Test
  5115 							    
  5116
  5117
  5118
  5119
  5120 F5E6 A9 FE				lda	#$FE
  5121 F5E8 85 03				sta	Test
  5122 							    
  5123 F5EA			L997
  5124 F5EA 4C EA F5				jmp	L997
  5125
  5126
  5127 				.ifndef ATARI
  5128 F5ED			    org $FFEC
  5129 				;**  Part of testing JMP
  5130 FFEC			L999
  5131 FFEC 4C 12 E0				jmp	L005
  5132 				 
  5133 				 
  5134 				;* Should not be executed at all
  5135 FFEF EA					nop
  5136 FFF0 38					sec
  5137 FFF1			L999c
  5138 FFF1 B0 FE				bcs	L999c
  5139 						
  5140 FFF3 EA					nop
  5141
  5142
  5143
  5144 FFF4			    org $FFF4
  5145 FFF4			IRQ
  5146 FFF4			NMI
  5147 FFF4 EA					nop
  5148 						
  5149 FFF5 A9 FF				lda	#$FF
  5150 FFF7 48					pha
  5151 FFF8 28					plp			; change flag register on purpose
  5152 						
  5153 FFF9 40					rti
  5154
  5155 FFFA F4 FF 00 E0 F4 FF	    .word NMI, Reset, IRQ
  5156 				.else
  5157 				IRQ
  5158 				NMI
  5159 				    nop
  5160 				    lda #$ff
  5161 				    pha
  5162 				    plp
  5163 				    rti
  5164
  5165 				L999
  5166 				    jmp L005
  5167 				    nop
  5168 				    sec
  5169 				    bcs *
  5170 				    nop
  5171 				    run Reset
  5172 				.endif
  5173
